
Controllo motori (Nano).elf:     file format elf32-avr

Sections:
Idx Name          Size      VMA       LMA       File off  Algn
  0 .data         0000000c  00800100  00001b68  00001bfc  2**0
                  CONTENTS, ALLOC, LOAD, DATA
  1 .text         00001b68  00000000  00000000  00000094  2**1
                  CONTENTS, ALLOC, LOAD, READONLY, CODE
  2 .bss          000000ee  0080010c  0080010c  00001c08  2**0
                  ALLOC
  3 .comment      0000005c  00000000  00000000  00001c08  2**0
                  CONTENTS, READONLY
  4 .note.gnu.avr.deviceinfo 00000040  00000000  00000000  00001c64  2**2
                  CONTENTS, READONLY
  5 .debug_aranges 00000138  00000000  00000000  00001ca4  2**0
                  CONTENTS, READONLY, DEBUGGING
  6 .debug_info   00001ad0  00000000  00000000  00001ddc  2**0
                  CONTENTS, READONLY, DEBUGGING
  7 .debug_abbrev 00000c07  00000000  00000000  000038ac  2**0
                  CONTENTS, READONLY, DEBUGGING
  8 .debug_line   00000baf  00000000  00000000  000044b3  2**0
                  CONTENTS, READONLY, DEBUGGING
  9 .debug_frame  00000488  00000000  00000000  00005064  2**2
                  CONTENTS, READONLY, DEBUGGING
 10 .debug_str    00000651  00000000  00000000  000054ec  2**0
                  CONTENTS, READONLY, DEBUGGING
 11 .debug_loc    00000f09  00000000  00000000  00005b3d  2**0
                  CONTENTS, READONLY, DEBUGGING
 12 .debug_ranges 00000130  00000000  00000000  00006a46  2**0
                  CONTENTS, READONLY, DEBUGGING

Disassembly of section .text:

00000000 <__vectors>:
       0:	92 c0       	rjmp	.+292    	; 0x126 <__ctors_end>
       2:	00 00       	nop
       4:	17 c1       	rjmp	.+558    	; 0x234 <__vector_1>
       6:	00 00       	nop
       8:	1f c2       	rjmp	.+1086   	; 0x448 <__vector_2>
       a:	00 00       	nop
       c:	a8 c0       	rjmp	.+336    	; 0x15e <__bad_interrupt>
       e:	00 00       	nop
      10:	a6 c0       	rjmp	.+332    	; 0x15e <__bad_interrupt>
      12:	00 00       	nop
      14:	a4 c0       	rjmp	.+328    	; 0x15e <__bad_interrupt>
      16:	00 00       	nop
      18:	a2 c0       	rjmp	.+324    	; 0x15e <__bad_interrupt>
      1a:	00 00       	nop
      1c:	bd c0       	rjmp	.+378    	; 0x198 <__vector_7>
      1e:	00 00       	nop
      20:	9e c0       	rjmp	.+316    	; 0x15e <__bad_interrupt>
      22:	00 00       	nop
      24:	9c c0       	rjmp	.+312    	; 0x15e <__bad_interrupt>
      26:	00 00       	nop
      28:	9a c0       	rjmp	.+308    	; 0x15e <__bad_interrupt>
      2a:	00 00       	nop
      2c:	98 c0       	rjmp	.+304    	; 0x15e <__bad_interrupt>
      2e:	00 00       	nop
      30:	96 c0       	rjmp	.+300    	; 0x15e <__bad_interrupt>
      32:	00 00       	nop
      34:	94 c0       	rjmp	.+296    	; 0x15e <__bad_interrupt>
      36:	00 00       	nop
      38:	d8 c0       	rjmp	.+432    	; 0x1ea <__vector_14>
      3a:	00 00       	nop
      3c:	90 c0       	rjmp	.+288    	; 0x15e <__bad_interrupt>
      3e:	00 00       	nop
      40:	8e c0       	rjmp	.+284    	; 0x15e <__bad_interrupt>
      42:	00 00       	nop
      44:	8c c0       	rjmp	.+280    	; 0x15e <__bad_interrupt>
      46:	00 00       	nop
      48:	09 c2       	rjmp	.+1042   	; 0x45c <__vector_18>
      4a:	00 00       	nop
      4c:	88 c0       	rjmp	.+272    	; 0x15e <__bad_interrupt>
      4e:	00 00       	nop
      50:	86 c0       	rjmp	.+268    	; 0x15e <__bad_interrupt>
      52:	00 00       	nop
      54:	84 c0       	rjmp	.+264    	; 0x15e <__bad_interrupt>
      56:	00 00       	nop
      58:	82 c0       	rjmp	.+260    	; 0x15e <__bad_interrupt>
      5a:	00 00       	nop
      5c:	80 c0       	rjmp	.+256    	; 0x15e <__bad_interrupt>
      5e:	00 00       	nop
      60:	7e c0       	rjmp	.+252    	; 0x15e <__bad_interrupt>
      62:	00 00       	nop
      64:	7c c0       	rjmp	.+248    	; 0x15e <__bad_interrupt>
      66:	00 00       	nop
      68:	07 63       	ori	r16, 0x37	; 55
      6a:	42 36       	cpi	r20, 0x62	; 98
      6c:	b7 9b       	sbis	0x16, 7	; 22
      6e:	d8 a7       	std	Y+40, r29	; 0x28
      70:	1a 39       	cpi	r17, 0x9A	; 154
      72:	68 56       	subi	r22, 0x68	; 104
      74:	18 ae       	std	Y+56, r1	; 0x38
      76:	ba ab       	std	Y+50, r27	; 0x32
      78:	55 8c       	ldd	r5, Z+29	; 0x1d
      7a:	1d 3c       	cpi	r17, 0xCD	; 205
      7c:	b7 cc       	rjmp	.-1682   	; 0xfffff9ec <__eeprom_end+0xff7ef9ec>
      7e:	57 63       	ori	r21, 0x37	; 55
      80:	bd 6d       	ori	r27, 0xDD	; 221
      82:	ed fd       	.word	0xfded	; ????
      84:	75 3e       	cpi	r23, 0xE5	; 229
      86:	f6 17       	cp	r31, r22
      88:	72 31       	cpi	r23, 0x12	; 18
      8a:	bf 00       	.word	0x00bf	; ????
      8c:	00 00       	nop
      8e:	80 3f       	cpi	r24, 0xF0	; 240
      90:	08 00       	.word	0x0008	; ????
      92:	00 00       	nop
      94:	be 92       	st	-X, r11
      96:	24 49       	sbci	r18, 0x94	; 148
      98:	12 3e       	cpi	r17, 0xE2	; 226
      9a:	ab aa       	std	Y+51, r10	; 0x33
      9c:	aa 2a       	or	r10, r26
      9e:	be cd       	rjmp	.-1156   	; 0xfffffc1c <__eeprom_end+0xff7efc1c>
      a0:	cc cc       	rjmp	.-1640   	; 0xfffffa3a <__eeprom_end+0xff7efa3a>
      a2:	4c 3e       	cpi	r20, 0xEC	; 236
      a4:	00 00       	nop
      a6:	00 80       	ld	r0, Z
      a8:	be ab       	std	Y+54, r27	; 0x36
      aa:	aa aa       	std	Y+50, r10	; 0x32
      ac:	aa 3e       	cpi	r26, 0xEA	; 234
      ae:	00 00       	nop
      b0:	00 00       	nop
      b2:	bf 00       	.word	0x00bf	; ????
      b4:	00 00       	nop
      b6:	80 3f       	cpi	r24, 0xF0	; 240
      b8:	00 00       	nop
      ba:	00 00       	nop
      bc:	00 08       	sbc	r0, r0
      be:	41 78       	andi	r20, 0x81	; 129
      c0:	d3 bb       	out	0x13, r29	; 19
      c2:	43 87       	std	Z+11, r20	; 0x0b
      c4:	d1 13       	cpse	r29, r17
      c6:	3d 19       	sub	r19, r13
      c8:	0e 3c       	cpi	r16, 0xCE	; 206
      ca:	c3 bd       	out	0x23, r28	; 35
      cc:	42 82       	std	Z+2, r4	; 0x02
      ce:	ad 2b       	or	r26, r29
      d0:	3e 68       	ori	r19, 0x8E	; 142
      d2:	ec 82       	std	Y+4, r14	; 0x04
      d4:	76 be       	out	0x36, r7	; 54
      d6:	d9 8f       	std	Y+25, r29	; 0x19
      d8:	e1 a9       	ldd	r30, Z+49	; 0x31
      da:	3e 4c       	sbci	r19, 0xCE	; 206
      dc:	80 ef       	ldi	r24, 0xF0	; 240
      de:	ff be       	out	0x3f, r15	; 63
      e0:	01 c4       	rjmp	.+2050   	; 0x8e4 <CalculatePID+0x270>
      e2:	ff 7f       	andi	r31, 0xFF	; 255
      e4:	3f 00       	.word	0x003f	; ????
      e6:	00 00       	nop
	...

000000ea <__trampolines_end>:
      ea:	4e 41       	sbci	r20, 0x1E	; 30
      ec:	4e 49       	Address 0x000000ec is out of bounds.
.word	0xffff	; ????

000000ed <pstr_inity>:
      ed:	49 4e 49 54 59                                      INITY

000000f2 <pstr_inf>:
      f2:	49 4e 46                                            INF

000000f5 <pwr_m10>:
      f5:	cd cc cc 3d 0a d7 23 3c 17 b7 d1 38 77 cc 2b 32     ...=..#<...8w.+2
     105:	95 95 e6 24 1f b1 4f 0a                             ...$..O.

0000010d <pwr_p10>:
     10d:	00 00 20 41 00 00 c8 42 00 40 1c 46 20 bc be 4c     .. A...B.@.F ..L
     11d:	ca 1b 0e 5a ae c5 9d 74 00                          ...Z...t.

00000126 <__ctors_end>:
     126:	11 24       	eor	r1, r1
     128:	1f be       	out	0x3f, r1	; 63
     12a:	cf ef       	ldi	r28, 0xFF	; 255
     12c:	d8 e0       	ldi	r29, 0x08	; 8
     12e:	de bf       	out	0x3e, r29	; 62
     130:	cd bf       	out	0x3d, r28	; 61

00000132 <__do_copy_data>:
     132:	11 e0       	ldi	r17, 0x01	; 1
     134:	a0 e0       	ldi	r26, 0x00	; 0
     136:	b1 e0       	ldi	r27, 0x01	; 1
     138:	e8 e6       	ldi	r30, 0x68	; 104
     13a:	fb e1       	ldi	r31, 0x1B	; 27
     13c:	02 c0       	rjmp	.+4      	; 0x142 <__do_copy_data+0x10>
     13e:	05 90       	lpm	r0, Z+
     140:	0d 92       	st	X+, r0
     142:	ac 30       	cpi	r26, 0x0C	; 12
     144:	b1 07       	cpc	r27, r17
     146:	d9 f7       	brne	.-10     	; 0x13e <__do_copy_data+0xc>

00000148 <__do_clear_bss>:
     148:	21 e0       	ldi	r18, 0x01	; 1
     14a:	ac e0       	ldi	r26, 0x0C	; 12
     14c:	b1 e0       	ldi	r27, 0x01	; 1
     14e:	01 c0       	rjmp	.+2      	; 0x152 <.do_clear_bss_start>

00000150 <.do_clear_bss_loop>:
     150:	1d 92       	st	X+, r1

00000152 <.do_clear_bss_start>:
     152:	aa 3f       	cpi	r26, 0xFA	; 250
     154:	b2 07       	cpc	r27, r18
     156:	e1 f7       	brne	.-8      	; 0x150 <.do_clear_bss_loop>
     158:	ab d1       	rcall	.+854    	; 0x4b0 <main>
     15a:	0c 94 b2 0d 	jmp	0x1b64	; 0x1b64 <_exit>

0000015e <__bad_interrupt>:
     15e:	50 cf       	rjmp	.-352    	; 0x0 <__vectors>

00000160 <InitADC>:
     160:	ea e7       	ldi	r30, 0x7A	; 122
     162:	f0 e0       	ldi	r31, 0x00	; 0
     164:	80 81       	ld	r24, Z
     166:	87 60       	ori	r24, 0x07	; 7
     168:	80 83       	st	Z, r24
     16a:	ac e7       	ldi	r26, 0x7C	; 124
     16c:	b0 e0       	ldi	r27, 0x00	; 0
     16e:	8c 91       	ld	r24, X
     170:	80 64       	ori	r24, 0x40	; 64
     172:	8c 93       	st	X, r24
     174:	80 81       	ld	r24, Z
     176:	80 68       	ori	r24, 0x80	; 128
     178:	80 83       	st	Z, r24
     17a:	80 81       	ld	r24, Z
     17c:	80 64       	ori	r24, 0x40	; 64
     17e:	80 83       	st	Z, r24
     180:	08 95       	ret

00000182 <InitISR>:

volatile unsigned long topRaggiunti = 0;
volatile unsigned long ciao = 0;

void InitISR(void){
	PORTD|=(1<<PIND3);
     182:	5b 9a       	sbi	0x0b, 3	; 11
	EIMSK|=(1<<INT0)|(1<<INT1);
     184:	8d b3       	in	r24, 0x1d	; 29
     186:	83 60       	ori	r24, 0x03	; 3
     188:	8d bb       	out	0x1d, r24	; 29
	EICRA|=(1<<ISC01)|(1<<ISC00)|(1<<ISC11)|(1<<ISC10);
     18a:	e9 e6       	ldi	r30, 0x69	; 105
     18c:	f0 e0       	ldi	r31, 0x00	; 0
     18e:	80 81       	ld	r24, Z
     190:	8f 60       	ori	r24, 0x0F	; 15
     192:	80 83       	st	Z, r24
	sei();
     194:	78 94       	sei
     196:	08 95       	ret

00000198 <__vector_7>:
}

	
ISR(TIMER2_COMPA_vect){
     198:	1f 92       	push	r1
     19a:	0f 92       	push	r0
     19c:	0f b6       	in	r0, 0x3f	; 63
     19e:	0f 92       	push	r0
     1a0:	11 24       	eor	r1, r1
     1a2:	2f 93       	push	r18
     1a4:	3f 93       	push	r19
     1a6:	4f 93       	push	r20
     1a8:	5f 93       	push	r21
     1aa:	6f 93       	push	r22
     1ac:	7f 93       	push	r23
     1ae:	8f 93       	push	r24
     1b0:	9f 93       	push	r25
     1b2:	af 93       	push	r26
     1b4:	bf 93       	push	r27
     1b6:	ef 93       	push	r30
     1b8:	ff 93       	push	r31
	OCR1A = CalculatePID(0);
     1ba:	80 e0       	ldi	r24, 0x00	; 0
     1bc:	90 e0       	ldi	r25, 0x00	; 0
     1be:	5a d2       	rcall	.+1204   	; 0x674 <CalculatePID>
     1c0:	90 93 89 00 	sts	0x0089, r25	; 0x800089 <__DATA_REGION_ORIGIN__+0x29>
     1c4:	80 93 88 00 	sts	0x0088, r24	; 0x800088 <__DATA_REGION_ORIGIN__+0x28>
	//dutyMDxA = CalculatePID(MDxA);
	//dutyMSxD = CalculatePID(MSxD);
	//dutyMDxD = CalculatePID(MDxD);
	
}
     1c8:	ff 91       	pop	r31
     1ca:	ef 91       	pop	r30
     1cc:	bf 91       	pop	r27
     1ce:	af 91       	pop	r26
     1d0:	9f 91       	pop	r25
     1d2:	8f 91       	pop	r24
     1d4:	7f 91       	pop	r23
     1d6:	6f 91       	pop	r22
     1d8:	5f 91       	pop	r21
     1da:	4f 91       	pop	r20
     1dc:	3f 91       	pop	r19
     1de:	2f 91       	pop	r18
     1e0:	0f 90       	pop	r0
     1e2:	0f be       	out	0x3f, r0	; 63
     1e4:	0f 90       	pop	r0
     1e6:	1f 90       	pop	r1
     1e8:	18 95       	reti

000001ea <__vector_14>:

ISR(TIMER0_COMPA_vect){
     1ea:	1f 92       	push	r1
     1ec:	0f 92       	push	r0
     1ee:	0f b6       	in	r0, 0x3f	; 63
     1f0:	0f 92       	push	r0
     1f2:	11 24       	eor	r1, r1
     1f4:	8f 93       	push	r24
     1f6:	9f 93       	push	r25
     1f8:	af 93       	push	r26
     1fa:	bf 93       	push	r27
	topRaggiunti++;	
     1fc:	80 91 0c 01 	lds	r24, 0x010C	; 0x80010c <__data_end>
     200:	90 91 0d 01 	lds	r25, 0x010D	; 0x80010d <__data_end+0x1>
     204:	a0 91 0e 01 	lds	r26, 0x010E	; 0x80010e <__data_end+0x2>
     208:	b0 91 0f 01 	lds	r27, 0x010F	; 0x80010f <__data_end+0x3>
     20c:	01 96       	adiw	r24, 0x01	; 1
     20e:	a1 1d       	adc	r26, r1
     210:	b1 1d       	adc	r27, r1
     212:	80 93 0c 01 	sts	0x010C, r24	; 0x80010c <__data_end>
     216:	90 93 0d 01 	sts	0x010D, r25	; 0x80010d <__data_end+0x1>
     21a:	a0 93 0e 01 	sts	0x010E, r26	; 0x80010e <__data_end+0x2>
     21e:	b0 93 0f 01 	sts	0x010F, r27	; 0x80010f <__data_end+0x3>
	
}
     222:	bf 91       	pop	r27
     224:	af 91       	pop	r26
     226:	9f 91       	pop	r25
     228:	8f 91       	pop	r24
     22a:	0f 90       	pop	r0
     22c:	0f be       	out	0x3f, r0	; 63
     22e:	0f 90       	pop	r0
     230:	1f 90       	pop	r1
     232:	18 95       	reti

00000234 <__vector_1>:

ISR(INT0_vect){	
     234:	1f 92       	push	r1
     236:	0f 92       	push	r0
     238:	0f b6       	in	r0, 0x3f	; 63
     23a:	0f 92       	push	r0
     23c:	11 24       	eor	r1, r1
     23e:	4f 92       	push	r4
     240:	5f 92       	push	r5
     242:	6f 92       	push	r6
     244:	7f 92       	push	r7
     246:	8f 92       	push	r8
     248:	9f 92       	push	r9
     24a:	af 92       	push	r10
     24c:	bf 92       	push	r11
     24e:	cf 92       	push	r12
     250:	df 92       	push	r13
     252:	ef 92       	push	r14
     254:	ff 92       	push	r15
     256:	2f 93       	push	r18
     258:	3f 93       	push	r19
     25a:	4f 93       	push	r20
     25c:	5f 93       	push	r21
     25e:	6f 93       	push	r22
     260:	7f 93       	push	r23
     262:	8f 93       	push	r24
     264:	9f 93       	push	r25
     266:	af 93       	push	r26
     268:	bf 93       	push	r27
     26a:	ef 93       	push	r30
     26c:	ff 93       	push	r31
	
	tImp[0] = TCNT0;
     26e:	86 b5       	in	r24, 0x26	; 38
     270:	90 e0       	ldi	r25, 0x00	; 0
     272:	a0 e0       	ldi	r26, 0x00	; 0
     274:	b0 e0       	ldi	r27, 0x00	; 0
     276:	80 93 ae 01 	sts	0x01AE, r24	; 0x8001ae <tImp>
     27a:	90 93 af 01 	sts	0x01AF, r25	; 0x8001af <tImp+0x1>
     27e:	a0 93 b0 01 	sts	0x01B0, r26	; 0x8001b0 <tImp+0x2>
     282:	b0 93 b1 01 	sts	0x01B1, r27	; 0x8001b1 <tImp+0x3>
	topRaggiuntiProv[0]=topRaggiunti;
     286:	80 91 0c 01 	lds	r24, 0x010C	; 0x80010c <__data_end>
     28a:	90 91 0d 01 	lds	r25, 0x010D	; 0x80010d <__data_end+0x1>
     28e:	a0 91 0e 01 	lds	r26, 0x010E	; 0x80010e <__data_end+0x2>
     292:	b0 91 0f 01 	lds	r27, 0x010F	; 0x80010f <__data_end+0x3>
     296:	e0 e2       	ldi	r30, 0x20	; 32
     298:	f1 e0       	ldi	r31, 0x01	; 1
     29a:	80 83       	st	Z, r24
     29c:	91 83       	std	Z+1, r25	; 0x01
     29e:	a2 83       	std	Z+2, r26	; 0x02
     2a0:	b3 83       	std	Z+3, r27	; 0x03
	if(topRaggiuntiProv[0]==vTopRaggiunti[0]){
     2a2:	40 81       	ld	r20, Z
     2a4:	51 81       	ldd	r21, Z+1	; 0x01
     2a6:	62 81       	ldd	r22, Z+2	; 0x02
     2a8:	73 81       	ldd	r23, Z+3	; 0x03
     2aa:	80 91 f0 01 	lds	r24, 0x01F0	; 0x8001f0 <vTopRaggiunti>
     2ae:	90 91 f1 01 	lds	r25, 0x01F1	; 0x8001f1 <vTopRaggiunti+0x1>
     2b2:	a0 91 f2 01 	lds	r26, 0x01F2	; 0x8001f2 <vTopRaggiunti+0x2>
     2b6:	b0 91 f3 01 	lds	r27, 0x01F3	; 0x8001f3 <vTopRaggiunti+0x3>
     2ba:	48 17       	cp	r20, r24
     2bc:	59 07       	cpc	r21, r25
     2be:	6a 07       	cpc	r22, r26
     2c0:	7b 07       	cpc	r23, r27
     2c2:	e9 f4       	brne	.+58     	; 0x2fe <__vector_1+0xca>
		difftImp[0] = tImp[0] - vtImp[0];
     2c4:	80 91 ae 01 	lds	r24, 0x01AE	; 0x8001ae <tImp>
     2c8:	90 91 af 01 	lds	r25, 0x01AF	; 0x8001af <tImp+0x1>
     2cc:	a0 91 b0 01 	lds	r26, 0x01B0	; 0x8001b0 <tImp+0x2>
     2d0:	b0 91 b1 01 	lds	r27, 0x01B1	; 0x8001b1 <tImp+0x3>
     2d4:	40 91 b6 01 	lds	r20, 0x01B6	; 0x8001b6 <vtImp>
     2d8:	50 91 b7 01 	lds	r21, 0x01B7	; 0x8001b7 <vtImp+0x1>
     2dc:	60 91 b8 01 	lds	r22, 0x01B8	; 0x8001b8 <vtImp+0x2>
     2e0:	70 91 b9 01 	lds	r23, 0x01B9	; 0x8001b9 <vtImp+0x3>
     2e4:	84 1b       	sub	r24, r20
     2e6:	95 0b       	sbc	r25, r21
     2e8:	a6 0b       	sbc	r26, r22
     2ea:	b7 0b       	sbc	r27, r23
     2ec:	80 93 a6 01 	sts	0x01A6, r24	; 0x8001a6 <difftImp>
     2f0:	90 93 a7 01 	sts	0x01A7, r25	; 0x8001a7 <difftImp+0x1>
     2f4:	a0 93 a8 01 	sts	0x01A8, r26	; 0x8001a8 <difftImp+0x2>
     2f8:	b0 93 a9 01 	sts	0x01A9, r27	; 0x8001a9 <difftImp+0x3>
     2fc:	4b c0       	rjmp	.+150    	; 0x394 <__vector_1+0x160>
	}
	else{
		difftImp[0] = (OCR0A - vtImp[0]) + (tImp[0]) + ((topRaggiuntiProv[0]-vTopRaggiunti[0]-1)*OCR0A);
     2fe:	e7 b5       	in	r30, 0x27	; 39
     300:	80 90 b6 01 	lds	r8, 0x01B6	; 0x8001b6 <vtImp>
     304:	90 90 b7 01 	lds	r9, 0x01B7	; 0x8001b7 <vtImp+0x1>
     308:	a0 90 b8 01 	lds	r10, 0x01B8	; 0x8001b8 <vtImp+0x2>
     30c:	b0 90 b9 01 	lds	r11, 0x01B9	; 0x8001b9 <vtImp+0x3>
     310:	c0 90 ae 01 	lds	r12, 0x01AE	; 0x8001ae <tImp>
     314:	d0 90 af 01 	lds	r13, 0x01AF	; 0x8001af <tImp+0x1>
     318:	e0 90 b0 01 	lds	r14, 0x01B0	; 0x8001b0 <tImp+0x2>
     31c:	f0 90 b1 01 	lds	r15, 0x01B1	; 0x8001b1 <tImp+0x3>
     320:	40 91 20 01 	lds	r20, 0x0120	; 0x800120 <topRaggiuntiProv>
     324:	50 91 21 01 	lds	r21, 0x0121	; 0x800121 <topRaggiuntiProv+0x1>
     328:	60 91 22 01 	lds	r22, 0x0122	; 0x800122 <topRaggiuntiProv+0x2>
     32c:	70 91 23 01 	lds	r23, 0x0123	; 0x800123 <topRaggiuntiProv+0x3>
     330:	40 90 f0 01 	lds	r4, 0x01F0	; 0x8001f0 <vTopRaggiunti>
     334:	50 90 f1 01 	lds	r5, 0x01F1	; 0x8001f1 <vTopRaggiunti+0x1>
     338:	60 90 f2 01 	lds	r6, 0x01F2	; 0x8001f2 <vTopRaggiunti+0x2>
     33c:	70 90 f3 01 	lds	r7, 0x01F3	; 0x8001f3 <vTopRaggiunti+0x3>
     340:	a7 b5       	in	r26, 0x27	; 39
     342:	41 50       	subi	r20, 0x01	; 1
     344:	51 09       	sbc	r21, r1
     346:	61 09       	sbc	r22, r1
     348:	71 09       	sbc	r23, r1
     34a:	9a 01       	movw	r18, r20
     34c:	ab 01       	movw	r20, r22
     34e:	24 19       	sub	r18, r4
     350:	35 09       	sbc	r19, r5
     352:	46 09       	sbc	r20, r6
     354:	57 09       	sbc	r21, r7
     356:	b0 e0       	ldi	r27, 0x00	; 0
     358:	0e 94 54 0b 	call	0x16a8	; 0x16a8 <__muluhisi3>
     35c:	4e 2e       	mov	r4, r30
     35e:	51 2c       	mov	r5, r1
     360:	61 2c       	mov	r6, r1
     362:	71 2c       	mov	r7, r1
     364:	a3 01       	movw	r20, r6
     366:	92 01       	movw	r18, r4
     368:	28 19       	sub	r18, r8
     36a:	39 09       	sbc	r19, r9
     36c:	4a 09       	sbc	r20, r10
     36e:	5b 09       	sbc	r21, r11
     370:	c2 0e       	add	r12, r18
     372:	d3 1e       	adc	r13, r19
     374:	e4 1e       	adc	r14, r20
     376:	f5 1e       	adc	r15, r21
     378:	dc 01       	movw	r26, r24
     37a:	cb 01       	movw	r24, r22
     37c:	8c 0d       	add	r24, r12
     37e:	9d 1d       	adc	r25, r13
     380:	ae 1d       	adc	r26, r14
     382:	bf 1d       	adc	r27, r15
     384:	80 93 a6 01 	sts	0x01A6, r24	; 0x8001a6 <difftImp>
     388:	90 93 a7 01 	sts	0x01A7, r25	; 0x8001a7 <difftImp+0x1>
     38c:	a0 93 a8 01 	sts	0x01A8, r26	; 0x8001a8 <difftImp+0x2>
     390:	b0 93 a9 01 	sts	0x01A9, r27	; 0x8001a9 <difftImp+0x3>
		
	}
	speed[0] = 250000.0 / (622.0*difftImp[0]);
     394:	60 91 a6 01 	lds	r22, 0x01A6	; 0x8001a6 <difftImp>
     398:	70 91 a7 01 	lds	r23, 0x01A7	; 0x8001a7 <difftImp+0x1>
     39c:	80 91 a8 01 	lds	r24, 0x01A8	; 0x8001a8 <difftImp+0x2>
     3a0:	90 91 a9 01 	lds	r25, 0x01A9	; 0x8001a9 <difftImp+0x3>
     3a4:	b5 d6       	rcall	.+3434   	; 0x1110 <__floatunsisf>
     3a6:	20 e0       	ldi	r18, 0x00	; 0
     3a8:	30 e8       	ldi	r19, 0x80	; 128
     3aa:	4b e1       	ldi	r20, 0x1B	; 27
     3ac:	54 e4       	ldi	r21, 0x44	; 68
     3ae:	c2 d7       	rcall	.+3972   	; 0x1334 <__mulsf3>
     3b0:	9b 01       	movw	r18, r22
     3b2:	ac 01       	movw	r20, r24
     3b4:	60 e0       	ldi	r22, 0x00	; 0
     3b6:	74 e2       	ldi	r23, 0x24	; 36
     3b8:	84 e7       	ldi	r24, 0x74	; 116
     3ba:	98 e4       	ldi	r25, 0x48	; 72
     3bc:	10 d6       	rcall	.+3104   	; 0xfde <__divsf3>
     3be:	60 93 ca 01 	sts	0x01CA, r22	; 0x8001ca <speed>
     3c2:	70 93 cb 01 	sts	0x01CB, r23	; 0x8001cb <speed+0x1>
     3c6:	80 93 cc 01 	sts	0x01CC, r24	; 0x8001cc <speed+0x2>
     3ca:	90 93 cd 01 	sts	0x01CD, r25	; 0x8001cd <speed+0x3>
	vtImp[0] = tImp[0];
     3ce:	80 91 ae 01 	lds	r24, 0x01AE	; 0x8001ae <tImp>
     3d2:	90 91 af 01 	lds	r25, 0x01AF	; 0x8001af <tImp+0x1>
     3d6:	a0 91 b0 01 	lds	r26, 0x01B0	; 0x8001b0 <tImp+0x2>
     3da:	b0 91 b1 01 	lds	r27, 0x01B1	; 0x8001b1 <tImp+0x3>
     3de:	80 93 b6 01 	sts	0x01B6, r24	; 0x8001b6 <vtImp>
     3e2:	90 93 b7 01 	sts	0x01B7, r25	; 0x8001b7 <vtImp+0x1>
     3e6:	a0 93 b8 01 	sts	0x01B8, r26	; 0x8001b8 <vtImp+0x2>
     3ea:	b0 93 b9 01 	sts	0x01B9, r27	; 0x8001b9 <vtImp+0x3>
	vTopRaggiunti[0] = topRaggiuntiProv[0];
     3ee:	80 91 20 01 	lds	r24, 0x0120	; 0x800120 <topRaggiuntiProv>
     3f2:	90 91 21 01 	lds	r25, 0x0121	; 0x800121 <topRaggiuntiProv+0x1>
     3f6:	a0 91 22 01 	lds	r26, 0x0122	; 0x800122 <topRaggiuntiProv+0x2>
     3fa:	b0 91 23 01 	lds	r27, 0x0123	; 0x800123 <topRaggiuntiProv+0x3>
     3fe:	80 93 f0 01 	sts	0x01F0, r24	; 0x8001f0 <vTopRaggiunti>
     402:	90 93 f1 01 	sts	0x01F1, r25	; 0x8001f1 <vTopRaggiunti+0x1>
     406:	a0 93 f2 01 	sts	0x01F2, r26	; 0x8001f2 <vTopRaggiunti+0x2>
     40a:	b0 93 f3 01 	sts	0x01F3, r27	; 0x8001f3 <vTopRaggiunti+0x3>
}
     40e:	ff 91       	pop	r31
     410:	ef 91       	pop	r30
     412:	bf 91       	pop	r27
     414:	af 91       	pop	r26
     416:	9f 91       	pop	r25
     418:	8f 91       	pop	r24
     41a:	7f 91       	pop	r23
     41c:	6f 91       	pop	r22
     41e:	5f 91       	pop	r21
     420:	4f 91       	pop	r20
     422:	3f 91       	pop	r19
     424:	2f 91       	pop	r18
     426:	ff 90       	pop	r15
     428:	ef 90       	pop	r14
     42a:	df 90       	pop	r13
     42c:	cf 90       	pop	r12
     42e:	bf 90       	pop	r11
     430:	af 90       	pop	r10
     432:	9f 90       	pop	r9
     434:	8f 90       	pop	r8
     436:	7f 90       	pop	r7
     438:	6f 90       	pop	r6
     43a:	5f 90       	pop	r5
     43c:	4f 90       	pop	r4
     43e:	0f 90       	pop	r0
     440:	0f be       	out	0x3f, r0	; 63
     442:	0f 90       	pop	r0
     444:	1f 90       	pop	r1
     446:	18 95       	reti

00000448 <__vector_2>:

ISR(INT1_vect){
     448:	1f 92       	push	r1
     44a:	0f 92       	push	r0
     44c:	0f b6       	in	r0, 0x3f	; 63
     44e:	0f 92       	push	r0
     450:	11 24       	eor	r1, r1


}
     452:	0f 90       	pop	r0
     454:	0f be       	out	0x3f, r0	; 63
     456:	0f 90       	pop	r0
     458:	1f 90       	pop	r1
     45a:	18 95       	reti

0000045c <__vector_18>:





ISR (USART_RX_vect){
     45c:	1f 92       	push	r1
     45e:	0f 92       	push	r0
     460:	0f b6       	in	r0, 0x3f	; 63
     462:	0f 92       	push	r0
     464:	11 24       	eor	r1, r1
     466:	8f 93       	push	r24
     468:	9f 93       	push	r25
     46a:	ef 93       	push	r30
     46c:	ff 93       	push	r31
	char n=UDR0;
     46e:	80 91 c6 00 	lds	r24, 0x00C6	; 0x8000c6 <__DATA_REGION_ORIGIN__+0x66>
	if (n!= 'e'){
     472:	85 36       	cpi	r24, 0x65	; 101
     474:	89 f0       	breq	.+34     	; 0x498 <__vector_18+0x3c>
		
		num[countForSer]=n;				//riempie la stringa dalla cifra più significativa
     476:	e0 91 30 01 	lds	r30, 0x0130	; 0x800130 <countForSer>
     47a:	f0 91 31 01 	lds	r31, 0x0131	; 0x800131 <countForSer+0x1>
     47e:	e4 5a       	subi	r30, 0xA4	; 164
     480:	fe 4f       	sbci	r31, 0xFE	; 254
     482:	80 83       	st	Z, r24
		countForSer++;
     484:	80 91 30 01 	lds	r24, 0x0130	; 0x800130 <countForSer>
     488:	90 91 31 01 	lds	r25, 0x0131	; 0x800131 <countForSer+0x1>
     48c:	01 96       	adiw	r24, 0x01	; 1
     48e:	90 93 31 01 	sts	0x0131, r25	; 0x800131 <countForSer+0x1>
     492:	80 93 30 01 	sts	0x0130, r24	; 0x800130 <countForSer>
     496:	03 c0       	rjmp	.+6      	; 0x49e <__vector_18+0x42>
	}
	
	else{
		numEnded=1;
     498:	81 e0       	ldi	r24, 0x01	; 1
     49a:	80 93 3e 01 	sts	0x013E, r24	; 0x80013e <numEnded>
		
	}
     49e:	ff 91       	pop	r31
     4a0:	ef 91       	pop	r30
     4a2:	9f 91       	pop	r25
     4a4:	8f 91       	pop	r24
     4a6:	0f 90       	pop	r0
     4a8:	0f be       	out	0x3f, r0	; 63
     4aa:	0f 90       	pop	r0
     4ac:	1f 90       	pop	r1
     4ae:	18 95       	reti

000004b0 <main>:
#include "serial.h"
#include "ADC.h"
int main(void)
{
	
	numEnded=0;
     4b0:	10 92 3e 01 	sts	0x013E, r1	; 0x80013e <numEnded>
	Serial_Init();
     4b4:	28 d3       	rcall	.+1616   	; 0xb06 <Serial_Init>
	InitADC();
     4b6:	54 de       	rcall	.-856    	; 0x160 <InitADC>
     4b8:	80 e0       	ldi	r24, 0x00	; 0
	Serial_Send("xd");
     4ba:	91 e0       	ldi	r25, 0x01	; 1
     4bc:	4f d3       	rcall	.+1694   	; 0xb5c <Serial_Send_String>
	SerialN();
     4be:	62 d4       	rcall	.+2244   	; 0xd84 <SerialN>
     4c0:	aa d0       	rcall	.+340    	; 0x616 <InitPWM>
	InitPWM();
     4c2:	5f de       	rcall	.-834    	; 0x182 <InitISR>
     4c4:	17 b8       	out	0x07, r1	; 7
	InitISR();
     4c6:	c6 e3       	ldi	r28, 0x36	; 54
     4c8:	d1 e0       	ldi	r29, 0x01	; 1
	DDRC=0;
     4ca:	0f 2e       	mov	r0, r31
					PORTD=(1<<PIND6)|(1<<PIND4);
					wantedSpeed=-wantedSpeed;
				}
				else PORTD=(1<<PIND7)|(1<<PIND5);
				
				for(int i=0; i<2; i++)setpoint[i]=wantedSpeed;
     4cc:	c1 2c       	mov	r12, r1
     4ce:	d1 2c       	mov	r13, r1
				if(wantedSpeed==0)for(int i=0; i<2; i++)setpoint[i]=-1000;
     4d0:	fa e7       	ldi	r31, 0x7A	; 122
     4d2:	ef 2e       	mov	r14, r31
     4d4:	f4 ec       	ldi	r31, 0xC4	; 196
     4d6:	ff 2e       	mov	r15, r31
     4d8:	f0 2d       	mov	r31, r0
     4da:	10 ea       	ldi	r17, 0xA0	; 160
     4dc:	00 e5       	ldi	r16, 0x50	; 80
     4de:	80 91 3e 01 	lds	r24, 0x013E	; 0x80013e <numEnded>
			float wantedSpeed=atof(num);
			switch (operation)
			{
				case '0':
				if (wantedSpeed<0){
					PORTD=(1<<PIND6)|(1<<PIND4);
     4e2:	88 23       	and	r24, r24
	SerialN();
	InitPWM();
	InitISR();
	DDRC=0;
    while (1) {
		if (numEnded){
     4e4:	e1 f3       	breq	.-8      	; 0x4de <main+0x2e>
     4e6:	e0 91 30 01 	lds	r30, 0x0130	; 0x800130 <countForSer>
     4ea:	f0 91 31 01 	lds	r31, 0x0131	; 0x800131 <countForSer+0x1>
			operation=num[countForSer-1];
     4ee:	e5 5a       	subi	r30, 0xA5	; 165
     4f0:	fe 4f       	sbci	r31, 0xFE	; 254
     4f2:	80 81       	ld	r24, Z
     4f4:	80 93 3f 01 	sts	0x013F, r24	; 0x80013f <operation>
     4f8:	e0 91 30 01 	lds	r30, 0x0130	; 0x800130 <countForSer>
     4fc:	f0 91 31 01 	lds	r31, 0x0131	; 0x800131 <countForSer+0x1>
			num[countForSer-1]=0;
     500:	e5 5a       	subi	r30, 0xA5	; 165
     502:	fe 4f       	sbci	r31, 0xFE	; 254
     504:	10 82       	st	Z, r1
     506:	8c e5       	ldi	r24, 0x5C	; 92
     508:	91 e0       	ldi	r25, 0x01	; 1
     50a:	0e 94 49 0c 	call	0x1892	; 0x1892 <atof>
			float wantedSpeed=atof(num);
     50e:	4b 01       	movw	r8, r22
     510:	5c 01       	movw	r10, r24
     512:	80 91 3f 01 	lds	r24, 0x013F	; 0x80013f <operation>
     516:	81 33       	cpi	r24, 0x31	; 49
			switch (operation)
     518:	69 f1       	breq	.+90     	; 0x574 <main+0xc4>
     51a:	82 33       	cpi	r24, 0x32	; 50
     51c:	b9 f1       	breq	.+110    	; 0x58c <main+0xdc>
     51e:	80 33       	cpi	r24, 0x30	; 48
     520:	09 f0       	breq	.+2      	; 0x524 <main+0x74>
     522:	48 c0       	rjmp	.+144    	; 0x5b4 <main+0x104>
     524:	20 e0       	ldi	r18, 0x00	; 0
     526:	30 e0       	ldi	r19, 0x00	; 0
			{
				case '0':
				if (wantedSpeed<0){
     528:	a9 01       	movw	r20, r18
     52a:	c5 01       	movw	r24, r10
     52c:	b4 01       	movw	r22, r8
     52e:	53 d5       	rcall	.+2726   	; 0xfd6 <__cmpsf2>
     530:	88 23       	and	r24, r24
     532:	34 f4       	brge	.+12     	; 0x540 <main+0x90>
     534:	0b b9       	out	0x0b, r16	; 11
     536:	b7 fa       	bst	r11, 7
     538:	b0 94       	com	r11
					PORTD=(1<<PIND6)|(1<<PIND4);
     53a:	b7 f8       	bld	r11, 7
					wantedSpeed=-wantedSpeed;
     53c:	b0 94       	com	r11
     53e:	01 c0       	rjmp	.+2      	; 0x542 <main+0x92>
     540:	1b b9       	out	0x0b, r17	; 11
     542:	88 82       	st	Y, r8
     544:	99 82       	std	Y+1, r9	; 0x01
				}
				else PORTD=(1<<PIND7)|(1<<PIND5);
     546:	aa 82       	std	Y+2, r10	; 0x02
				
				for(int i=0; i<2; i++)setpoint[i]=wantedSpeed;
     548:	bb 82       	std	Y+3, r11	; 0x03
     54a:	8c 82       	std	Y+4, r8	; 0x04
     54c:	9d 82       	std	Y+5, r9	; 0x05
     54e:	ae 82       	std	Y+6, r10	; 0x06
     550:	bf 82       	std	Y+7, r11	; 0x07
     552:	20 e0       	ldi	r18, 0x00	; 0
     554:	30 e0       	ldi	r19, 0x00	; 0
				if(wantedSpeed==0)for(int i=0; i<2; i++)setpoint[i]=-1000;
     556:	a9 01       	movw	r20, r18
     558:	c5 01       	movw	r24, r10
     55a:	b4 01       	movw	r22, r8
     55c:	3c d5       	rcall	.+2680   	; 0xfd6 <__cmpsf2>
     55e:	81 11       	cpse	r24, r1
     560:	2e c0       	rjmp	.+92     	; 0x5be <main+0x10e>
     562:	c8 82       	st	Y, r12
     564:	d9 82       	std	Y+1, r13	; 0x01
     566:	ea 82       	std	Y+2, r14	; 0x02
     568:	fb 82       	std	Y+3, r15	; 0x03
     56a:	cc 82       	std	Y+4, r12	; 0x04
     56c:	dd 82       	std	Y+5, r13	; 0x05
     56e:	ee 82       	std	Y+6, r14	; 0x06
     570:	ff 82       	std	Y+7, r15	; 0x07
     572:	25 c0       	rjmp	.+74     	; 0x5be <main+0x10e>
     574:	21 e0       	ldi	r18, 0x01	; 1
     576:	30 e0       	ldi	r19, 0x00	; 0
     578:	40 e0       	ldi	r20, 0x00	; 0
				break;
				
				case '1':
				Serial_Send(1);
     57a:	50 e0       	ldi	r21, 0x00	; 0
     57c:	60 e0       	ldi	r22, 0x00	; 0
     57e:	70 e0       	ldi	r23, 0x00	; 0
     580:	80 e0       	ldi	r24, 0x00	; 0
     582:	90 e0       	ldi	r25, 0x00	; 0
     584:	0c d3       	rcall	.+1560   	; 0xb9e <Serial_Send_Int>
     586:	fe d3       	rcall	.+2044   	; 0xd84 <SerialN>
				SerialN();
     588:	fd d3       	rcall	.+2042   	; 0xd84 <SerialN>
     58a:	19 c0       	rjmp	.+50     	; 0x5be <main+0x10e>
				SerialN();
     58c:	80 92 50 01 	sts	0x0150, r8	; 0x800150 <angle>
				break;
     590:	90 92 51 01 	sts	0x0151, r9	; 0x800151 <angle+0x1>
				
				case '2':
				angle=wantedSpeed;
     594:	a0 92 52 01 	sts	0x0152, r10	; 0x800152 <angle+0x2>
     598:	b0 92 53 01 	sts	0x0153, r11	; 0x800153 <angle+0x3>
     59c:	60 91 50 01 	lds	r22, 0x0150	; 0x800150 <angle>
				Serial_Send(angle);
     5a0:	70 91 51 01 	lds	r23, 0x0151	; 0x800151 <angle+0x1>
     5a4:	80 91 52 01 	lds	r24, 0x0152	; 0x800152 <angle+0x2>
     5a8:	90 91 53 01 	lds	r25, 0x0153	; 0x800153 <angle+0x3>
				SerialN();
     5ac:	f0 d3       	rcall	.+2016   	; 0xd8e <Serial_Send_Float>
     5ae:	ea d3       	rcall	.+2004   	; 0xd84 <SerialN>
				SerialN();
     5b0:	e9 d3       	rcall	.+2002   	; 0xd84 <SerialN>
     5b2:	05 c0       	rjmp	.+10     	; 0x5be <main+0x10e>
				break;
     5b4:	83 e0       	ldi	r24, 0x03	; 3
				
				default:
				Serial_Send("ciao");
     5b6:	91 e0       	ldi	r25, 0x01	; 1
     5b8:	d1 d2       	rcall	.+1442   	; 0xb5c <Serial_Send_String>
     5ba:	e4 d3       	rcall	.+1992   	; 0xd84 <SerialN>
     5bc:	e3 d3       	rcall	.+1990   	; 0xd84 <SerialN>
				SerialN();
     5be:	80 91 30 01 	lds	r24, 0x0130	; 0x800130 <countForSer>
				SerialN();
     5c2:	90 91 31 01 	lds	r25, 0x0131	; 0x800131 <countForSer+0x1>
				break;
			}

			for(countForSer; countForSer>=0; countForSer--) num[countForSer]=0;
     5c6:	80 91 30 01 	lds	r24, 0x0130	; 0x800130 <countForSer>
     5ca:	90 91 31 01 	lds	r25, 0x0131	; 0x800131 <countForSer+0x1>
     5ce:	99 23       	and	r25, r25
     5d0:	b4 f0       	brlt	.+44     	; 0x5fe <main+0x14e>
     5d2:	e0 91 30 01 	lds	r30, 0x0130	; 0x800130 <countForSer>
     5d6:	f0 91 31 01 	lds	r31, 0x0131	; 0x800131 <countForSer+0x1>
     5da:	e4 5a       	subi	r30, 0xA4	; 164
     5dc:	fe 4f       	sbci	r31, 0xFE	; 254
     5de:	10 82       	st	Z, r1
     5e0:	80 91 30 01 	lds	r24, 0x0130	; 0x800130 <countForSer>
     5e4:	90 91 31 01 	lds	r25, 0x0131	; 0x800131 <countForSer+0x1>
     5e8:	01 97       	sbiw	r24, 0x01	; 1
     5ea:	90 93 31 01 	sts	0x0131, r25	; 0x800131 <countForSer+0x1>
     5ee:	80 93 30 01 	sts	0x0130, r24	; 0x800130 <countForSer>
     5f2:	80 91 30 01 	lds	r24, 0x0130	; 0x800130 <countForSer>
     5f6:	90 91 31 01 	lds	r25, 0x0131	; 0x800131 <countForSer+0x1>
     5fa:	99 23       	and	r25, r25
     5fc:	54 f7       	brge	.-44     	; 0x5d2 <main+0x122>
     5fe:	80 91 30 01 	lds	r24, 0x0130	; 0x800130 <countForSer>
     602:	90 91 31 01 	lds	r25, 0x0131	; 0x800131 <countForSer+0x1>
			countForSer++;
     606:	01 96       	adiw	r24, 0x01	; 1
     608:	90 93 31 01 	sts	0x0131, r25	; 0x800131 <countForSer+0x1>
     60c:	80 93 30 01 	sts	0x0130, r24	; 0x800130 <countForSer>
     610:	10 92 3e 01 	sts	0x013E, r1	; 0x80013e <numEnded>
     614:	64 cf       	rjmp	.-312    	; 0x4de <main+0x2e>

00000616 <InitPWM>:
//#include "BNO.h"

/*-------------------PWM-------------------*/
//Inizializzazione PWM
void InitPWM(void){
	TCCR1A|=(1<<WGM10)|(1<<WGM11)|(1<<COM1A1)|(1<<COM1B1);								//PWM 10 bit, non-inverting mode, PRESCALER = 256, FREQUENZA OTTENUTA = 61 Hz
     616:	e0 e8       	ldi	r30, 0x80	; 128
     618:	f0 e0       	ldi	r31, 0x00	; 0
     61a:	80 81       	ld	r24, Z
     61c:	83 6a       	ori	r24, 0xA3	; 163
     61e:	80 83       	st	Z, r24
	TCCR1B|=(1<<WGM12)|(0<<WGM13)|(1<<CS12);
     620:	e1 e8       	ldi	r30, 0x81	; 129
     622:	f0 e0       	ldi	r31, 0x00	; 0
     624:	80 81       	ld	r24, Z
     626:	8c 60       	ori	r24, 0x0C	; 12
     628:	80 83       	st	Z, r24
	
	TCCR2A|=(0<<WGM20)|(0<<WGM21)|(0<<COM2A1)|(0<<COM2B1);								//CTC timer 5, PRESCALER = 8
     62a:	e0 eb       	ldi	r30, 0xB0	; 176
     62c:	f0 e0       	ldi	r31, 0x00	; 0
     62e:	80 81       	ld	r24, Z
     630:	80 83       	st	Z, r24
	TCCR2B|=(1<<WGM22)|(1<<CS20)|(1<<CS21);
     632:	e1 eb       	ldi	r30, 0xB1	; 177
     634:	f0 e0       	ldi	r31, 0x00	; 0
     636:	80 81       	ld	r24, Z
     638:	8b 60       	ori	r24, 0x0B	; 11
     63a:	80 83       	st	Z, r24
	TIMSK2 = (1<<OCIE2A);
     63c:	22 e0       	ldi	r18, 0x02	; 2
     63e:	20 93 70 00 	sts	0x0070, r18	; 0x800070 <__DATA_REGION_ORIGIN__+0x10>
	OCR2A = 255;																				
     642:	8f ef       	ldi	r24, 0xFF	; 255
     644:	80 93 b3 00 	sts	0x00B3, r24	; 0x8000b3 <__DATA_REGION_ORIGIN__+0x53>
	
	TCCR0A|=(0<<WGM00)|(1<<WGM01)|(0<<COM0A1)|(0<<COM0B1);					
     648:	94 b5       	in	r25, 0x24	; 36
     64a:	92 60       	ori	r25, 0x02	; 2
     64c:	94 bd       	out	0x24, r25	; 36
	TCCR0B|=(1<<WGM02)|(1<<CS00)|(1<<CS01);
     64e:	95 b5       	in	r25, 0x25	; 37
     650:	9b 60       	ori	r25, 0x0B	; 11
     652:	95 bd       	out	0x25, r25	; 37
	TIMSK0 = (1<<OCIE0A);
     654:	20 93 6e 00 	sts	0x006E, r18	; 0x80006e <__DATA_REGION_ORIGIN__+0xe>
	OCR0A = 255;
     658:	87 bd       	out	0x27, r24	; 39
	TCNT0=0xFF;
     65a:	86 bd       	out	0x26, r24	; 38

	
	DDRD=(1<<PIND4)|(1<<PIND5)|(1<<PIND6)|(1<<PIND7);
     65c:	90 ef       	ldi	r25, 0xF0	; 240
     65e:	9a b9       	out	0x0a, r25	; 10
	DDRB=0xFF;
     660:	84 b9       	out	0x04, r24	; 4

	for(int i=1;i<2;i++)integral[i]=0;
     662:	10 92 e0 01 	sts	0x01E0, r1	; 0x8001e0 <integral+0x4>
     666:	10 92 e1 01 	sts	0x01E1, r1	; 0x8001e1 <integral+0x5>
     66a:	10 92 e2 01 	sts	0x01E2, r1	; 0x8001e2 <integral+0x6>
     66e:	10 92 e3 01 	sts	0x01E3, r1	; 0x8001e3 <integral+0x7>
     672:	08 95       	ret

00000674 <CalculatePID>:
	//setpointGy+=degrees;
//}
//
///*-------------------PID-------------------*/

int CalculatePID(int N){
     674:	8f 92       	push	r8
     676:	9f 92       	push	r9
     678:	af 92       	push	r10
     67a:	bf 92       	push	r11
     67c:	cf 92       	push	r12
     67e:	df 92       	push	r13
     680:	ef 92       	push	r14
     682:	ff 92       	push	r15
     684:	0f 93       	push	r16
     686:	1f 93       	push	r17
     688:	cf 93       	push	r28
     68a:	df 93       	push	r29
     68c:	ec 01       	movw	r28, r24
	if(Ti==0){
     68e:	80 91 a4 01 	lds	r24, 0x01A4	; 0x8001a4 <Ti>
     692:	90 91 a5 01 	lds	r25, 0x01A5	; 0x8001a5 <Ti+0x1>
     696:	89 2b       	or	r24, r25
     698:	09 f0       	breq	.+2      	; 0x69c <CalculatePID+0x28>
     69a:	c6 c0       	rjmp	.+396    	; 0x828 <CalculatePID+0x1b4>
		errorGy = setpointGy + ABS(angle);
     69c:	60 91 50 01 	lds	r22, 0x0150	; 0x800150 <angle>
     6a0:	70 91 51 01 	lds	r23, 0x0151	; 0x800151 <angle+0x1>
     6a4:	80 91 52 01 	lds	r24, 0x0152	; 0x800152 <angle+0x2>
     6a8:	90 91 53 01 	lds	r25, 0x0153	; 0x800153 <angle+0x3>
     6ac:	15 d2       	rcall	.+1066   	; 0xad8 <ABS>
     6ae:	20 91 ec 01 	lds	r18, 0x01EC	; 0x8001ec <setpointGy>
     6b2:	30 91 ed 01 	lds	r19, 0x01ED	; 0x8001ed <setpointGy+0x1>
     6b6:	40 91 ee 01 	lds	r20, 0x01EE	; 0x8001ee <setpointGy+0x2>
     6ba:	50 91 ef 01 	lds	r21, 0x01EF	; 0x8001ef <setpointGy+0x3>
     6be:	27 d4       	rcall	.+2126   	; 0xf0e <__addsf3>
     6c0:	60 93 4c 01 	sts	0x014C, r22	; 0x80014c <errorGy>
     6c4:	70 93 4d 01 	sts	0x014D, r23	; 0x80014d <errorGy+0x1>
     6c8:	80 93 4e 01 	sts	0x014E, r24	; 0x80014e <errorGy+0x2>
     6cc:	90 93 4f 01 	sts	0x014F, r25	; 0x80014f <errorGy+0x3>
		derivativeGy = (errorGy - old_errorGy)/0.002;
     6d0:	60 91 4c 01 	lds	r22, 0x014C	; 0x80014c <errorGy>
     6d4:	70 91 4d 01 	lds	r23, 0x014D	; 0x80014d <errorGy+0x1>
     6d8:	80 91 4e 01 	lds	r24, 0x014E	; 0x80014e <errorGy+0x2>
     6dc:	90 91 4f 01 	lds	r25, 0x014F	; 0x80014f <errorGy+0x3>
     6e0:	20 91 be 01 	lds	r18, 0x01BE	; 0x8001be <old_errorGy>
     6e4:	30 91 bf 01 	lds	r19, 0x01BF	; 0x8001bf <old_errorGy+0x1>
     6e8:	40 91 c0 01 	lds	r20, 0x01C0	; 0x8001c0 <old_errorGy+0x2>
     6ec:	50 91 c1 01 	lds	r21, 0x01C1	; 0x8001c1 <old_errorGy+0x3>
     6f0:	0d d4       	rcall	.+2074   	; 0xf0c <__subsf3>
     6f2:	2f e6       	ldi	r18, 0x6F	; 111
     6f4:	32 e1       	ldi	r19, 0x12	; 18
     6f6:	43 e0       	ldi	r20, 0x03	; 3
     6f8:	5b e3       	ldi	r21, 0x3B	; 59
     6fa:	71 d4       	rcall	.+2274   	; 0xfde <__divsf3>
     6fc:	60 93 18 01 	sts	0x0118, r22	; 0x800118 <derivativeGy>
     700:	70 93 19 01 	sts	0x0119, r23	; 0x800119 <derivativeGy+0x1>
     704:	80 93 1a 01 	sts	0x011A, r24	; 0x80011a <derivativeGy+0x2>
     708:	90 93 1b 01 	sts	0x011B, r25	; 0x80011b <derivativeGy+0x3>
		
		if(angle>0){
     70c:	60 91 50 01 	lds	r22, 0x0150	; 0x800150 <angle>
     710:	70 91 51 01 	lds	r23, 0x0151	; 0x800151 <angle+0x1>
     714:	80 91 52 01 	lds	r24, 0x0152	; 0x800152 <angle+0x2>
     718:	90 91 53 01 	lds	r25, 0x0153	; 0x800153 <angle+0x3>
     71c:	20 e0       	ldi	r18, 0x00	; 0
     71e:	30 e0       	ldi	r19, 0x00	; 0
     720:	a9 01       	movw	r20, r18
     722:	04 d6       	rcall	.+3080   	; 0x132c <__gesf2>
     724:	18 16       	cp	r1, r24
     726:	8c f5       	brge	.+98     	; 0x78a <CalculatePID+0x116>
			increase[0] = increase[1] = -errorGy*Kpg /*+ derivativeGy*Kdg*/;
     728:	80 91 4c 01 	lds	r24, 0x014C	; 0x80014c <errorGy>
     72c:	90 91 4d 01 	lds	r25, 0x014D	; 0x80014d <errorGy+0x1>
     730:	a0 91 4e 01 	lds	r26, 0x014E	; 0x80014e <errorGy+0x2>
     734:	b0 91 4f 01 	lds	r27, 0x014F	; 0x80014f <errorGy+0x3>
     738:	bc 01       	movw	r22, r24
     73a:	cd 01       	movw	r24, r26
     73c:	90 58       	subi	r25, 0x80	; 128
     73e:	2d ec       	ldi	r18, 0xCD	; 205
     740:	3c ec       	ldi	r19, 0xCC	; 204
     742:	4c e4       	ldi	r20, 0x4C	; 76
     744:	5d e3       	ldi	r21, 0x3D	; 61
     746:	f6 d5       	rcall	.+3052   	; 0x1334 <__mulsf3>
     748:	0c e9       	ldi	r16, 0x9C	; 156
     74a:	11 e0       	ldi	r17, 0x01	; 1
     74c:	f8 01       	movw	r30, r16
     74e:	64 83       	std	Z+4, r22	; 0x04
     750:	75 83       	std	Z+5, r23	; 0x05
     752:	86 83       	std	Z+6, r24	; 0x06
     754:	97 83       	std	Z+7, r25	; 0x07
     756:	60 83       	st	Z, r22
     758:	71 83       	std	Z+1, r23	; 0x01
     75a:	82 83       	std	Z+2, r24	; 0x02
     75c:	93 83       	std	Z+3, r25	; 0x03
			increase[0] = increase[1] = (errorGy*Kpg /*+ derivativeGy*Kdg*/);
     75e:	60 91 4c 01 	lds	r22, 0x014C	; 0x80014c <errorGy>
     762:	70 91 4d 01 	lds	r23, 0x014D	; 0x80014d <errorGy+0x1>
     766:	80 91 4e 01 	lds	r24, 0x014E	; 0x80014e <errorGy+0x2>
     76a:	90 91 4f 01 	lds	r25, 0x014F	; 0x80014f <errorGy+0x3>
     76e:	2d ec       	ldi	r18, 0xCD	; 205
     770:	3c ec       	ldi	r19, 0xCC	; 204
     772:	4c e4       	ldi	r20, 0x4C	; 76
     774:	5d e3       	ldi	r21, 0x3D	; 61
     776:	de d5       	rcall	.+3004   	; 0x1334 <__mulsf3>
     778:	f8 01       	movw	r30, r16
     77a:	64 83       	std	Z+4, r22	; 0x04
     77c:	75 83       	std	Z+5, r23	; 0x05
     77e:	86 83       	std	Z+6, r24	; 0x06
     780:	97 83       	std	Z+7, r25	; 0x07
     782:	60 83       	st	Z, r22
     784:	71 83       	std	Z+1, r23	; 0x01
     786:	82 83       	std	Z+2, r24	; 0x02
     788:	93 83       	std	Z+3, r25	; 0x03
		}
		if(angle<0){
     78a:	60 91 50 01 	lds	r22, 0x0150	; 0x800150 <angle>
     78e:	70 91 51 01 	lds	r23, 0x0151	; 0x800151 <angle+0x1>
     792:	80 91 52 01 	lds	r24, 0x0152	; 0x800152 <angle+0x2>
     796:	90 91 53 01 	lds	r25, 0x0153	; 0x800153 <angle+0x3>
     79a:	20 e0       	ldi	r18, 0x00	; 0
     79c:	30 e0       	ldi	r19, 0x00	; 0
     79e:	a9 01       	movw	r20, r18
     7a0:	1a d4       	rcall	.+2100   	; 0xfd6 <__cmpsf2>
     7a2:	88 23       	and	r24, r24
     7a4:	8c f5       	brge	.+98     	; 0x808 <CalculatePID+0x194>
			increase[0] = increase[1] = errorGy*Kpg /*+ derivativeGy*Kdg*/;
     7a6:	60 91 4c 01 	lds	r22, 0x014C	; 0x80014c <errorGy>
     7aa:	70 91 4d 01 	lds	r23, 0x014D	; 0x80014d <errorGy+0x1>
     7ae:	80 91 4e 01 	lds	r24, 0x014E	; 0x80014e <errorGy+0x2>
     7b2:	90 91 4f 01 	lds	r25, 0x014F	; 0x80014f <errorGy+0x3>
     7b6:	2d ec       	ldi	r18, 0xCD	; 205
     7b8:	3c ec       	ldi	r19, 0xCC	; 204
     7ba:	4c e4       	ldi	r20, 0x4C	; 76
     7bc:	5d e3       	ldi	r21, 0x3D	; 61
     7be:	ba d5       	rcall	.+2932   	; 0x1334 <__mulsf3>
     7c0:	0c e9       	ldi	r16, 0x9C	; 156
     7c2:	11 e0       	ldi	r17, 0x01	; 1
     7c4:	f8 01       	movw	r30, r16
     7c6:	64 83       	std	Z+4, r22	; 0x04
     7c8:	75 83       	std	Z+5, r23	; 0x05
     7ca:	86 83       	std	Z+6, r24	; 0x06
     7cc:	97 83       	std	Z+7, r25	; 0x07
     7ce:	60 83       	st	Z, r22
     7d0:	71 83       	std	Z+1, r23	; 0x01
     7d2:	82 83       	std	Z+2, r24	; 0x02
     7d4:	93 83       	std	Z+3, r25	; 0x03
			increase[0] = increase[1] = -(errorGy*Kpg /*+ derivativeGy*Kdg*/);
     7d6:	60 91 4c 01 	lds	r22, 0x014C	; 0x80014c <errorGy>
     7da:	70 91 4d 01 	lds	r23, 0x014D	; 0x80014d <errorGy+0x1>
     7de:	80 91 4e 01 	lds	r24, 0x014E	; 0x80014e <errorGy+0x2>
     7e2:	90 91 4f 01 	lds	r25, 0x014F	; 0x80014f <errorGy+0x3>
     7e6:	2d ec       	ldi	r18, 0xCD	; 205
     7e8:	3c ec       	ldi	r19, 0xCC	; 204
     7ea:	4c e4       	ldi	r20, 0x4C	; 76
     7ec:	5d e3       	ldi	r21, 0x3D	; 61
     7ee:	a2 d5       	rcall	.+2884   	; 0x1334 <__mulsf3>
     7f0:	dc 01       	movw	r26, r24
     7f2:	cb 01       	movw	r24, r22
     7f4:	b0 58       	subi	r27, 0x80	; 128
     7f6:	f8 01       	movw	r30, r16
     7f8:	84 83       	std	Z+4, r24	; 0x04
     7fa:	95 83       	std	Z+5, r25	; 0x05
     7fc:	a6 83       	std	Z+6, r26	; 0x06
     7fe:	b7 83       	std	Z+7, r27	; 0x07
     800:	80 83       	st	Z, r24
     802:	91 83       	std	Z+1, r25	; 0x01
     804:	a2 83       	std	Z+2, r26	; 0x02
     806:	b3 83       	std	Z+3, r27	; 0x03
		}
		old_errorGy = errorGy;
     808:	80 91 4c 01 	lds	r24, 0x014C	; 0x80014c <errorGy>
     80c:	90 91 4d 01 	lds	r25, 0x014D	; 0x80014d <errorGy+0x1>
     810:	a0 91 4e 01 	lds	r26, 0x014E	; 0x80014e <errorGy+0x2>
     814:	b0 91 4f 01 	lds	r27, 0x014F	; 0x80014f <errorGy+0x3>
     818:	80 93 be 01 	sts	0x01BE, r24	; 0x8001be <old_errorGy>
     81c:	90 93 bf 01 	sts	0x01BF, r25	; 0x8001bf <old_errorGy+0x1>
     820:	a0 93 c0 01 	sts	0x01C0, r26	; 0x8001c0 <old_errorGy+0x2>
     824:	b0 93 c1 01 	sts	0x01C1, r27	; 0x8001c1 <old_errorGy+0x3>
	}
	set[N] = (setpoint[N]) + (increase[N]);
     828:	8e 01       	movw	r16, r28
     82a:	00 0f       	add	r16, r16
     82c:	11 1f       	adc	r17, r17
     82e:	00 0f       	add	r16, r16
     830:	11 1f       	adc	r17, r17
     832:	f8 01       	movw	r30, r16
     834:	ea 5c       	subi	r30, 0xCA	; 202
     836:	fe 4f       	sbci	r31, 0xFE	; 254
     838:	60 81       	ld	r22, Z
     83a:	71 81       	ldd	r23, Z+1	; 0x01
     83c:	82 81       	ldd	r24, Z+2	; 0x02
     83e:	93 81       	ldd	r25, Z+3	; 0x03
     840:	f8 01       	movw	r30, r16
     842:	e4 56       	subi	r30, 0x64	; 100
     844:	fe 4f       	sbci	r31, 0xFE	; 254
     846:	20 81       	ld	r18, Z
     848:	31 81       	ldd	r19, Z+1	; 0x01
     84a:	42 81       	ldd	r20, Z+2	; 0x02
     84c:	53 81       	ldd	r21, Z+3	; 0x03
     84e:	5f d3       	rcall	.+1726   	; 0xf0e <__addsf3>
     850:	f8 01       	movw	r30, r16
     852:	ec 51       	subi	r30, 0x1C	; 28
     854:	fe 4f       	sbci	r31, 0xFE	; 254
     856:	60 83       	st	Z, r22
     858:	71 83       	std	Z+1, r23	; 0x01
     85a:	82 83       	std	Z+2, r24	; 0x02
     85c:	93 83       	std	Z+3, r25	; 0x03
	error[N] = set[N] - speed[N];
     85e:	60 81       	ld	r22, Z
     860:	71 81       	ldd	r23, Z+1	; 0x01
     862:	82 81       	ldd	r24, Z+2	; 0x02
     864:	93 81       	ldd	r25, Z+3	; 0x03
     866:	f8 01       	movw	r30, r16
     868:	e6 53       	subi	r30, 0x36	; 54
     86a:	fe 4f       	sbci	r31, 0xFE	; 254
     86c:	20 81       	ld	r18, Z
     86e:	31 81       	ldd	r19, Z+1	; 0x01
     870:	42 81       	ldd	r20, Z+2	; 0x02
     872:	53 81       	ldd	r21, Z+3	; 0x03
     874:	4b d3       	rcall	.+1686   	; 0xf0c <__subsf3>
     876:	f8 01       	movw	r30, r16
     878:	ee 53       	subi	r30, 0x3E	; 62
     87a:	fe 4f       	sbci	r31, 0xFE	; 254
     87c:	60 83       	st	Z, r22
     87e:	71 83       	std	Z+1, r23	; 0x01
     880:	82 83       	std	Z+2, r24	; 0x02
     882:	93 83       	std	Z+3, r25	; 0x03
	integral[N] += error[N]*0.002;
     884:	60 81       	ld	r22, Z
     886:	71 81       	ldd	r23, Z+1	; 0x01
     888:	82 81       	ldd	r24, Z+2	; 0x02
     88a:	93 81       	ldd	r25, Z+3	; 0x03
     88c:	04 52       	subi	r16, 0x24	; 36
     88e:	1e 4f       	sbci	r17, 0xFE	; 254
     890:	f8 01       	movw	r30, r16
     892:	c0 80       	ld	r12, Z
     894:	d1 80       	ldd	r13, Z+1	; 0x01
     896:	e2 80       	ldd	r14, Z+2	; 0x02
     898:	f3 80       	ldd	r15, Z+3	; 0x03
     89a:	2f e6       	ldi	r18, 0x6F	; 111
     89c:	32 e1       	ldi	r19, 0x12	; 18
     89e:	43 e0       	ldi	r20, 0x03	; 3
     8a0:	5b e3       	ldi	r21, 0x3B	; 59
     8a2:	48 d5       	rcall	.+2704   	; 0x1334 <__mulsf3>
     8a4:	a7 01       	movw	r20, r14
     8a6:	96 01       	movw	r18, r12
     8a8:	32 d3       	rcall	.+1636   	; 0xf0e <__addsf3>
     8aa:	f8 01       	movw	r30, r16
     8ac:	60 83       	st	Z, r22
     8ae:	71 83       	std	Z+1, r23	; 0x01
     8b0:	82 83       	std	Z+2, r24	; 0x02
	integral[N] = integral[N] > limI ? limI : integral[N] < -limI ? -limI : integral[N];
     8b2:	93 83       	std	Z+3, r25	; 0x03
     8b4:	60 81       	ld	r22, Z
     8b6:	71 81       	ldd	r23, Z+1	; 0x01
     8b8:	82 81       	ldd	r24, Z+2	; 0x02
     8ba:	93 81       	ldd	r25, Z+3	; 0x03
     8bc:	20 e0       	ldi	r18, 0x00	; 0
     8be:	30 e0       	ldi	r19, 0x00	; 0
     8c0:	40 e8       	ldi	r20, 0x80	; 128
     8c2:	5f e3       	ldi	r21, 0x3F	; 63
     8c4:	33 d5       	rcall	.+2662   	; 0x132c <__gesf2>
     8c6:	18 16       	cp	r1, r24
     8c8:	94 f0       	brlt	.+36     	; 0x8ee <CalculatePID+0x27a>
     8ca:	f8 01       	movw	r30, r16
     8cc:	60 81       	ld	r22, Z
     8ce:	71 81       	ldd	r23, Z+1	; 0x01
     8d0:	82 81       	ldd	r24, Z+2	; 0x02
     8d2:	93 81       	ldd	r25, Z+3	; 0x03
     8d4:	20 e0       	ldi	r18, 0x00	; 0
     8d6:	30 e0       	ldi	r19, 0x00	; 0
     8d8:	40 e8       	ldi	r20, 0x80	; 128
     8da:	5f eb       	ldi	r21, 0xBF	; 191
     8dc:	7c d3       	rcall	.+1784   	; 0xfd6 <__cmpsf2>
     8de:	88 23       	and	r24, r24
     8e0:	5c f0       	brlt	.+22     	; 0x8f8 <CalculatePID+0x284>
     8e2:	f8 01       	movw	r30, r16
     8e4:	40 81       	ld	r20, Z
     8e6:	51 81       	ldd	r21, Z+1	; 0x01
     8e8:	62 81       	ldd	r22, Z+2	; 0x02
     8ea:	73 81       	ldd	r23, Z+3	; 0x03
     8ec:	09 c0       	rjmp	.+18     	; 0x900 <__stack+0x1>
     8ee:	40 e0       	ldi	r20, 0x00	; 0
     8f0:	50 e0       	ldi	r21, 0x00	; 0
     8f2:	60 e8       	ldi	r22, 0x80	; 128
     8f4:	7f e3       	ldi	r23, 0x3F	; 63
     8f6:	04 c0       	rjmp	.+8      	; 0x900 <__stack+0x1>
     8f8:	40 e0       	ldi	r20, 0x00	; 0
     8fa:	50 e0       	ldi	r21, 0x00	; 0
     8fc:	60 e8       	ldi	r22, 0x80	; 128
     8fe:	7f eb       	ldi	r23, 0xBF	; 191
     900:	ce 01       	movw	r24, r28
     902:	88 0f       	add	r24, r24
     904:	99 1f       	adc	r25, r25
     906:	88 0f       	add	r24, r24
     908:	99 1f       	adc	r25, r25
     90a:	fc 01       	movw	r30, r24
     90c:	e4 52       	subi	r30, 0x24	; 36
     90e:	fe 4f       	sbci	r31, 0xFE	; 254
     910:	40 83       	st	Z, r20
     912:	51 83       	std	Z+1, r21	; 0x01
     914:	62 83       	std	Z+2, r22	; 0x02
	proportional[N] = error[N]*Kp > limP ? limP : error[N]*Kp < -limP ? -limP : error[N]*Kp;
     916:	73 83       	std	Z+3, r23	; 0x03
     918:	fc 01       	movw	r30, r24
     91a:	ee 53       	subi	r30, 0x3E	; 62
     91c:	fe 4f       	sbci	r31, 0xFE	; 254
     91e:	60 81       	ld	r22, Z
     920:	71 81       	ldd	r23, Z+1	; 0x01
     922:	82 81       	ldd	r24, Z+2	; 0x02
     924:	93 81       	ldd	r25, Z+3	; 0x03
     926:	20 e0       	ldi	r18, 0x00	; 0
     928:	30 e8       	ldi	r19, 0x80	; 128
     92a:	42 e2       	ldi	r20, 0x22	; 34
     92c:	54 e4       	ldi	r21, 0x44	; 68
     92e:	02 d5       	rcall	.+2564   	; 0x1334 <__mulsf3>
     930:	20 e0       	ldi	r18, 0x00	; 0
     932:	30 e0       	ldi	r19, 0x00	; 0
     934:	4a e7       	ldi	r20, 0x7A	; 122
     936:	54 e4       	ldi	r21, 0x44	; 68
     938:	f9 d4       	rcall	.+2546   	; 0x132c <__gesf2>
     93a:	18 16       	cp	r1, r24
     93c:	44 f1       	brlt	.+80     	; 0x98e <__stack+0x8f>
     93e:	fe 01       	movw	r30, r28
     940:	ee 0f       	add	r30, r30
     942:	ff 1f       	adc	r31, r31
     944:	ee 0f       	add	r30, r30
     946:	ff 1f       	adc	r31, r31
     948:	ee 53       	subi	r30, 0x3E	; 62
     94a:	fe 4f       	sbci	r31, 0xFE	; 254
     94c:	60 81       	ld	r22, Z
     94e:	71 81       	ldd	r23, Z+1	; 0x01
     950:	82 81       	ldd	r24, Z+2	; 0x02
     952:	93 81       	ldd	r25, Z+3	; 0x03
     954:	20 e0       	ldi	r18, 0x00	; 0
     956:	30 e8       	ldi	r19, 0x80	; 128
     958:	42 e2       	ldi	r20, 0x22	; 34
     95a:	54 e4       	ldi	r21, 0x44	; 68
     95c:	eb d4       	rcall	.+2518   	; 0x1334 <__mulsf3>
     95e:	20 e0       	ldi	r18, 0x00	; 0
     960:	30 e0       	ldi	r19, 0x00	; 0
     962:	4a e7       	ldi	r20, 0x7A	; 122
     964:	54 ec       	ldi	r21, 0xC4	; 196
     966:	37 d3       	rcall	.+1646   	; 0xfd6 <__cmpsf2>
     968:	88 23       	and	r24, r24
     96a:	b4 f0       	brlt	.+44     	; 0x998 <__stack+0x99>
     96c:	fe 01       	movw	r30, r28
     96e:	ee 0f       	add	r30, r30
     970:	ff 1f       	adc	r31, r31
     972:	ee 0f       	add	r30, r30
     974:	ff 1f       	adc	r31, r31
     976:	ee 53       	subi	r30, 0x3E	; 62
     978:	fe 4f       	sbci	r31, 0xFE	; 254
     97a:	60 81       	ld	r22, Z
     97c:	71 81       	ldd	r23, Z+1	; 0x01
     97e:	82 81       	ldd	r24, Z+2	; 0x02
     980:	93 81       	ldd	r25, Z+3	; 0x03
     982:	20 e0       	ldi	r18, 0x00	; 0
     984:	30 e8       	ldi	r19, 0x80	; 128
     986:	42 e2       	ldi	r20, 0x22	; 34
     988:	54 e4       	ldi	r21, 0x44	; 68
     98a:	d4 d4       	rcall	.+2472   	; 0x1334 <__mulsf3>
     98c:	09 c0       	rjmp	.+18     	; 0x9a0 <__stack+0xa1>
     98e:	60 e0       	ldi	r22, 0x00	; 0
     990:	70 e0       	ldi	r23, 0x00	; 0
     992:	8a e7       	ldi	r24, 0x7A	; 122
     994:	94 e4       	ldi	r25, 0x44	; 68
     996:	04 c0       	rjmp	.+8      	; 0x9a0 <__stack+0xa1>
     998:	60 e0       	ldi	r22, 0x00	; 0
     99a:	70 e0       	ldi	r23, 0x00	; 0
     99c:	8a e7       	ldi	r24, 0x7A	; 122
     99e:	94 ec       	ldi	r25, 0xC4	; 196
     9a0:	8e 01       	movw	r16, r28
     9a2:	00 0f       	add	r16, r16
     9a4:	11 1f       	adc	r17, r17
     9a6:	00 0f       	add	r16, r16
     9a8:	11 1f       	adc	r17, r17
     9aa:	98 01       	movw	r18, r16
     9ac:	2c 5b       	subi	r18, 0xBC	; 188
     9ae:	3e 4f       	sbci	r19, 0xFE	; 254
     9b0:	79 01       	movw	r14, r18
     9b2:	f9 01       	movw	r30, r18
     9b4:	60 83       	st	Z, r22
     9b6:	71 83       	std	Z+1, r23	; 0x01
	derivative[N] = (error[N] - old_error[N])/0.002;
     9b8:	82 83       	std	Z+2, r24	; 0x02
     9ba:	93 83       	std	Z+3, r25	; 0x03
     9bc:	f8 01       	movw	r30, r16
     9be:	ee 53       	subi	r30, 0x3E	; 62
     9c0:	fe 4f       	sbci	r31, 0xFE	; 254
     9c2:	60 81       	ld	r22, Z
     9c4:	71 81       	ldd	r23, Z+1	; 0x01
     9c6:	82 81       	ldd	r24, Z+2	; 0x02
     9c8:	93 81       	ldd	r25, Z+3	; 0x03
     9ca:	f8 01       	movw	r30, r16
     9cc:	ec 5a       	subi	r30, 0xAC	; 172
     9ce:	fe 4f       	sbci	r31, 0xFE	; 254
     9d0:	20 81       	ld	r18, Z
     9d2:	31 81       	ldd	r19, Z+1	; 0x01
     9d4:	42 81       	ldd	r20, Z+2	; 0x02
     9d6:	53 81       	ldd	r21, Z+3	; 0x03
     9d8:	99 d2       	rcall	.+1330   	; 0xf0c <__subsf3>
     9da:	2f e6       	ldi	r18, 0x6F	; 111
     9dc:	32 e1       	ldi	r19, 0x12	; 18
     9de:	43 e0       	ldi	r20, 0x03	; 3
     9e0:	5b e3       	ldi	r21, 0x3B	; 59
     9e2:	fd d2       	rcall	.+1530   	; 0xfde <__divsf3>
     9e4:	d8 01       	movw	r26, r16
     9e6:	a8 5d       	subi	r26, 0xD8	; 216
     9e8:	be 4f       	sbci	r27, 0xFE	; 254
     9ea:	6d 93       	st	X+, r22
     9ec:	7d 93       	st	X+, r23
     9ee:	8d 93       	st	X+, r24
     9f0:	9c 93       	st	X, r25
	duty[N] = proportional[N] + integral[N]*Ki + derivative[N]*Kd;
     9f2:	13 97       	sbiw	r26, 0x03	; 3
     9f4:	f7 01       	movw	r30, r14
     9f6:	c0 80       	ld	r12, Z
     9f8:	d1 80       	ldd	r13, Z+1	; 0x01
     9fa:	e2 80       	ldd	r14, Z+2	; 0x02
     9fc:	f3 80       	ldd	r15, Z+3	; 0x03
     9fe:	f8 01       	movw	r30, r16
     a00:	e4 52       	subi	r30, 0x24	; 36
     a02:	fe 4f       	sbci	r31, 0xFE	; 254
     a04:	60 81       	ld	r22, Z
     a06:	71 81       	ldd	r23, Z+1	; 0x01
     a08:	82 81       	ldd	r24, Z+2	; 0x02
     a0a:	93 81       	ldd	r25, Z+3	; 0x03
     a0c:	8d 90       	ld	r8, X+
     a0e:	9d 90       	ld	r9, X+
     a10:	ad 90       	ld	r10, X+
     a12:	bc 90       	ld	r11, X
     a14:	20 e0       	ldi	r18, 0x00	; 0
     a16:	30 e0       	ldi	r19, 0x00	; 0
     a18:	4a e7       	ldi	r20, 0x7A	; 122
     a1a:	53 e4       	ldi	r21, 0x43	; 67
     a1c:	8b d4       	rcall	.+2326   	; 0x1334 <__mulsf3>
     a1e:	a7 01       	movw	r20, r14
     a20:	96 01       	movw	r18, r12
     a22:	75 d2       	rcall	.+1258   	; 0xf0e <__addsf3>
     a24:	6b 01       	movw	r12, r22
     a26:	7c 01       	movw	r14, r24
     a28:	2a e9       	ldi	r18, 0x9A	; 154
     a2a:	39 e9       	ldi	r19, 0x99	; 153
     a2c:	49 e9       	ldi	r20, 0x99	; 153
     a2e:	5e e3       	ldi	r21, 0x3E	; 62
     a30:	c5 01       	movw	r24, r10
     a32:	b4 01       	movw	r22, r8
     a34:	7f d4       	rcall	.+2302   	; 0x1334 <__mulsf3>
     a36:	9b 01       	movw	r18, r22
     a38:	ac 01       	movw	r20, r24
     a3a:	c7 01       	movw	r24, r14
     a3c:	b6 01       	movw	r22, r12
     a3e:	67 d2       	rcall	.+1230   	; 0xf0e <__addsf3>
     a40:	36 d3       	rcall	.+1644   	; 0x10ae <__fixsfsi>
     a42:	fe 01       	movw	r30, r28
     a44:	ee 0f       	add	r30, r30
     a46:	ff 1f       	adc	r31, r31
     a48:	ec 52       	subi	r30, 0x2C	; 44
     a4a:	fe 4f       	sbci	r31, 0xFE	; 254
     a4c:	71 83       	std	Z+1, r23	; 0x01
     a4e:	60 83       	st	Z, r22
	if (duty[N]<0) duty[N]=0;
     a50:	80 81       	ld	r24, Z
     a52:	91 81       	ldd	r25, Z+1	; 0x01
     a54:	99 23       	and	r25, r25
     a56:	3c f4       	brge	.+14     	; 0xa66 <__stack+0x167>
     a58:	fe 01       	movw	r30, r28
     a5a:	ee 0f       	add	r30, r30
     a5c:	ff 1f       	adc	r31, r31
     a5e:	ec 52       	subi	r30, 0x2C	; 44
     a60:	fe 4f       	sbci	r31, 0xFE	; 254
     a62:	11 82       	std	Z+1, r1	; 0x01
     a64:	10 82       	st	Z, r1
	if (duty[N]>1023) duty[N]=1023;
     a66:	fe 01       	movw	r30, r28
     a68:	ee 0f       	add	r30, r30
     a6a:	ff 1f       	adc	r31, r31
     a6c:	ec 52       	subi	r30, 0x2C	; 44
     a6e:	fe 4f       	sbci	r31, 0xFE	; 254
     a70:	80 81       	ld	r24, Z
     a72:	91 81       	ldd	r25, Z+1	; 0x01
     a74:	81 15       	cp	r24, r1
     a76:	94 40       	sbci	r25, 0x04	; 4
     a78:	4c f0       	brlt	.+18     	; 0xa8c <__stack+0x18d>
     a7a:	fe 01       	movw	r30, r28
     a7c:	ee 0f       	add	r30, r30
     a7e:	ff 1f       	adc	r31, r31
     a80:	ec 52       	subi	r30, 0x2C	; 44
     a82:	fe 4f       	sbci	r31, 0xFE	; 254
     a84:	8f ef       	ldi	r24, 0xFF	; 255
     a86:	93 e0       	ldi	r25, 0x03	; 3
     a88:	91 83       	std	Z+1, r25	; 0x01
     a8a:	80 83       	st	Z, r24
	old_error[N] = error[N];
     a8c:	ce 01       	movw	r24, r28
     a8e:	88 0f       	add	r24, r24
     a90:	99 1f       	adc	r25, r25
     a92:	88 0f       	add	r24, r24
     a94:	99 1f       	adc	r25, r25
     a96:	fc 01       	movw	r30, r24
     a98:	ee 53       	subi	r30, 0x3E	; 62
     a9a:	fe 4f       	sbci	r31, 0xFE	; 254
     a9c:	40 81       	ld	r20, Z
     a9e:	51 81       	ldd	r21, Z+1	; 0x01
     aa0:	62 81       	ldd	r22, Z+2	; 0x02
     aa2:	73 81       	ldd	r23, Z+3	; 0x03
     aa4:	fc 01       	movw	r30, r24
     aa6:	ec 5a       	subi	r30, 0xAC	; 172
     aa8:	fe 4f       	sbci	r31, 0xFE	; 254
     aaa:	40 83       	st	Z, r20
     aac:	51 83       	std	Z+1, r21	; 0x01
     aae:	62 83       	std	Z+2, r22	; 0x02
     ab0:	73 83       	std	Z+3, r23	; 0x03
	return duty[N];
     ab2:	cc 0f       	add	r28, r28
     ab4:	dd 1f       	adc	r29, r29
     ab6:	cc 52       	subi	r28, 0x2C	; 44
     ab8:	de 4f       	sbci	r29, 0xFE	; 254
     aba:	88 81       	ld	r24, Y
     abc:	99 81       	ldd	r25, Y+1	; 0x01
}
     abe:	df 91       	pop	r29
     ac0:	cf 91       	pop	r28
     ac2:	1f 91       	pop	r17
     ac4:	0f 91       	pop	r16
     ac6:	ff 90       	pop	r15
     ac8:	ef 90       	pop	r14
     aca:	df 90       	pop	r13
     acc:	cf 90       	pop	r12
     ace:	bf 90       	pop	r11
     ad0:	af 90       	pop	r10
     ad2:	9f 90       	pop	r9
     ad4:	8f 90       	pop	r8
     ad6:	08 95       	ret

00000ad8 <ABS>:
     ad8:	cf 92       	push	r12
     ada:	df 92       	push	r13
     adc:	ef 92       	push	r14
     ade:	ff 92       	push	r15
     ae0:	6b 01       	movw	r12, r22
     ae2:	7c 01       	movw	r14, r24
     ae4:	20 e0       	ldi	r18, 0x00	; 0
     ae6:	30 e0       	ldi	r19, 0x00	; 0
     ae8:	a9 01       	movw	r20, r18
     aea:	75 d2       	rcall	.+1258   	; 0xfd6 <__cmpsf2>
     aec:	88 23       	and	r24, r24
     aee:	24 f4       	brge	.+8      	; 0xaf8 <ABS+0x20>
     af0:	f7 fa       	bst	r15, 7
     af2:	f0 94       	com	r15
     af4:	f7 f8       	bld	r15, 7
     af6:	f0 94       	com	r15
     af8:	c7 01       	movw	r24, r14
     afa:	b6 01       	movw	r22, r12
     afc:	ff 90       	pop	r15
     afe:	ef 90       	pop	r14
     b00:	df 90       	pop	r13
     b02:	cf 90       	pop	r12
     b04:	08 95       	ret

00000b06 <Serial_Init>:
     b06:	80 91 10 01 	lds	r24, 0x0110	; 0x800110 <BAUD0>
     b0a:	90 91 11 01 	lds	r25, 0x0111	; 0x800111 <BAUD0+0x1>
     b0e:	a0 91 12 01 	lds	r26, 0x0112	; 0x800112 <BAUD0+0x2>
     b12:	b0 91 13 01 	lds	r27, 0x0113	; 0x800113 <BAUD0+0x3>
     b16:	89 2f       	mov	r24, r25
     b18:	9a 2f       	mov	r25, r26
     b1a:	ab 2f       	mov	r26, r27
     b1c:	bb 27       	eor	r27, r27
     b1e:	a7 fd       	sbrc	r26, 7
     b20:	ba 95       	dec	r27
     b22:	80 93 c5 00 	sts	0x00C5, r24	; 0x8000c5 <__DATA_REGION_ORIGIN__+0x65>
     b26:	80 91 10 01 	lds	r24, 0x0110	; 0x800110 <BAUD0>
     b2a:	80 93 c4 00 	sts	0x00C4, r24	; 0x8000c4 <__DATA_REGION_ORIGIN__+0x64>
     b2e:	88 e9       	ldi	r24, 0x98	; 152
     b30:	80 93 c1 00 	sts	0x00C1, r24	; 0x8000c1 <__DATA_REGION_ORIGIN__+0x61>
     b34:	86 e0       	ldi	r24, 0x06	; 6
     b36:	80 93 c2 00 	sts	0x00C2, r24	; 0x8000c2 <__DATA_REGION_ORIGIN__+0x62>
     b3a:	ec e5       	ldi	r30, 0x5C	; 92
     b3c:	f1 e0       	ldi	r31, 0x01	; 1
     b3e:	8c e7       	ldi	r24, 0x7C	; 124
     b40:	91 e0       	ldi	r25, 0x01	; 1
     b42:	11 92       	st	Z+, r1
     b44:	e8 17       	cp	r30, r24
     b46:	f9 07       	cpc	r31, r25
     b48:	e1 f7       	brne	.-8      	; 0xb42 <Serial_Init+0x3c>
     b4a:	08 95       	ret

00000b4c <Serial_Tx>:
     b4c:	e0 ec       	ldi	r30, 0xC0	; 192
     b4e:	f0 e0       	ldi	r31, 0x00	; 0
     b50:	90 81       	ld	r25, Z
     b52:	95 ff       	sbrs	r25, 5
     b54:	fd cf       	rjmp	.-6      	; 0xb50 <Serial_Tx+0x4>
     b56:	80 93 c6 00 	sts	0x00C6, r24	; 0x8000c6 <__DATA_REGION_ORIGIN__+0x66>
     b5a:	08 95       	ret

00000b5c <Serial_Send_String>:
     b5c:	ef 92       	push	r14
     b5e:	ff 92       	push	r15
     b60:	0f 93       	push	r16
     b62:	1f 93       	push	r17
     b64:	cf 93       	push	r28
     b66:	df 93       	push	r29
     b68:	8c 01       	movw	r16, r24
     b6a:	7c 01       	movw	r14, r24
     b6c:	c0 e0       	ldi	r28, 0x00	; 0
     b6e:	d0 e0       	ldi	r29, 0x00	; 0
     b70:	05 c0       	rjmp	.+10     	; 0xb7c <Serial_Send_String+0x20>
     b72:	f7 01       	movw	r30, r14
     b74:	81 91       	ld	r24, Z+
     b76:	7f 01       	movw	r14, r30
     b78:	e9 df       	rcall	.-46     	; 0xb4c <Serial_Tx>
     b7a:	21 96       	adiw	r28, 0x01	; 1
     b7c:	f8 01       	movw	r30, r16
     b7e:	01 90       	ld	r0, Z+
     b80:	00 20       	and	r0, r0
     b82:	e9 f7       	brne	.-6      	; 0xb7e <Serial_Send_String+0x22>
     b84:	31 97       	sbiw	r30, 0x01	; 1
     b86:	e0 1b       	sub	r30, r16
     b88:	f1 0b       	sbc	r31, r17
     b8a:	ce 17       	cp	r28, r30
     b8c:	df 07       	cpc	r29, r31
     b8e:	88 f3       	brcs	.-30     	; 0xb72 <Serial_Send_String+0x16>
     b90:	df 91       	pop	r29
     b92:	cf 91       	pop	r28
     b94:	1f 91       	pop	r17
     b96:	0f 91       	pop	r16
     b98:	ff 90       	pop	r15
     b9a:	ef 90       	pop	r14
     b9c:	08 95       	ret

00000b9e <Serial_Send_Int>:
     b9e:	2f 92       	push	r2
     ba0:	3f 92       	push	r3
     ba2:	4f 92       	push	r4
     ba4:	5f 92       	push	r5
     ba6:	6f 92       	push	r6
     ba8:	7f 92       	push	r7
     baa:	8f 92       	push	r8
     bac:	9f 92       	push	r9
     bae:	af 92       	push	r10
     bb0:	bf 92       	push	r11
     bb2:	cf 92       	push	r12
     bb4:	df 92       	push	r13
     bb6:	ef 92       	push	r14
     bb8:	ff 92       	push	r15
     bba:	0f 93       	push	r16
     bbc:	1f 93       	push	r17
     bbe:	cf 93       	push	r28
     bc0:	df 93       	push	r29
     bc2:	cd b7       	in	r28, 0x3d	; 61
     bc4:	de b7       	in	r29, 0x3e	; 62
     bc6:	c9 54       	subi	r28, 0x49	; 73
     bc8:	d1 09       	sbc	r29, r1
     bca:	0f b6       	in	r0, 0x3f	; 63
     bcc:	f8 94       	cli
     bce:	de bf       	out	0x3e, r29	; 62
     bd0:	0f be       	out	0x3f, r0	; 63
     bd2:	cd bf       	out	0x3d, r28	; 61
     bd4:	22 2e       	mov	r2, r18
     bd6:	33 2e       	mov	r3, r19
     bd8:	04 2f       	mov	r16, r20
     bda:	22 96       	adiw	r28, 0x02	; 2
     bdc:	5f af       	std	Y+63, r21	; 0x3f
     bde:	22 97       	sbiw	r28, 0x02	; 2
     be0:	86 2e       	mov	r8, r22
     be2:	17 2f       	mov	r17, r23
     be4:	23 96       	adiw	r28, 0x03	; 3
     be6:	8f af       	std	Y+63, r24	; 0x3f
     be8:	23 97       	sbiw	r28, 0x03	; 3
     bea:	24 96       	adiw	r28, 0x04	; 4
     bec:	9f af       	std	Y+63, r25	; 0x3f
     bee:	24 97       	sbiw	r28, 0x04	; 4
     bf0:	a0 e0       	ldi	r26, 0x00	; 0
     bf2:	34 d6       	rcall	.+3176   	; 0x185c <__cmpdi2_s8>
     bf4:	0c f0       	brlt	.+2      	; 0xbf8 <Serial_Send_Int+0x5a>
     bf6:	9e c0       	rjmp	.+316    	; 0xd34 <Serial_Send_Int+0x196>
     bf8:	88 e0       	ldi	r24, 0x08	; 8
     bfa:	91 e0       	ldi	r25, 0x01	; 1
     bfc:	af df       	rcall	.-162    	; 0xb5c <Serial_Send_String>
     bfe:	22 2d       	mov	r18, r2
     c00:	33 2d       	mov	r19, r3
     c02:	40 2f       	mov	r20, r16
     c04:	22 96       	adiw	r28, 0x02	; 2
     c06:	5f ad       	ldd	r21, Y+63	; 0x3f
     c08:	22 97       	sbiw	r28, 0x02	; 2
     c0a:	68 2d       	mov	r22, r8
     c0c:	71 2f       	mov	r23, r17
     c0e:	23 96       	adiw	r28, 0x03	; 3
     c10:	8f ad       	ldd	r24, Y+63	; 0x3f
     c12:	23 97       	sbiw	r28, 0x03	; 3
     c14:	24 96       	adiw	r28, 0x04	; 4
     c16:	9f ad       	ldd	r25, Y+63	; 0x3f
     c18:	24 97       	sbiw	r28, 0x04	; 4
     c1a:	d9 d5       	rcall	.+2994   	; 0x17ce <__negdi2>
     c1c:	22 2e       	mov	r2, r18
     c1e:	33 2e       	mov	r3, r19
     c20:	04 2f       	mov	r16, r20
     c22:	22 96       	adiw	r28, 0x02	; 2
     c24:	5f af       	std	Y+63, r21	; 0x3f
     c26:	22 97       	sbiw	r28, 0x02	; 2
     c28:	86 2e       	mov	r8, r22
     c2a:	17 2f       	mov	r17, r23
     c2c:	23 96       	adiw	r28, 0x03	; 3
     c2e:	8f af       	std	Y+63, r24	; 0x3f
     c30:	23 97       	sbiw	r28, 0x03	; 3
     c32:	24 96       	adiw	r28, 0x04	; 4
     c34:	9f af       	std	Y+63, r25	; 0x3f
     c36:	24 97       	sbiw	r28, 0x04	; 4
     c38:	a0 e0       	ldi	r26, 0x00	; 0
     c3a:	10 d6       	rcall	.+3104   	; 0x185c <__cmpdi2_s8>
     c3c:	19 f4       	brne	.+6      	; 0xc44 <Serial_Send_Int+0xa6>
     c3e:	80 e3       	ldi	r24, 0x30	; 48
     c40:	85 df       	rcall	.-246    	; 0xb4c <Serial_Tx>
     c42:	86 c0       	rjmp	.+268    	; 0xd50 <Serial_Send_Int+0x1b2>
     c44:	ce 01       	movw	r24, r28
     c46:	01 96       	adiw	r24, 0x01	; 1
     c48:	2c 01       	movw	r4, r24
     c4a:	3e 01       	movw	r6, r28
     c4c:	91 e2       	ldi	r25, 0x21	; 33
     c4e:	69 0e       	add	r6, r25
     c50:	71 1c       	adc	r7, r1
     c52:	f2 01       	movw	r30, r4
     c54:	11 92       	st	Z+, r1
     c56:	e6 15       	cp	r30, r6
     c58:	f7 05       	cpc	r31, r7
     c5a:	e1 f7       	brne	.-8      	; 0xc54 <Serial_Send_Int+0xb6>
     c5c:	0f 2e       	mov	r0, r31
     c5e:	ff e1       	ldi	r31, 0x1F	; 31
     c60:	9f 2e       	mov	r9, r31
     c62:	f0 2d       	mov	r31, r0
     c64:	28 96       	adiw	r28, 0x08	; 8
     c66:	5f ae       	std	Y+63, r5	; 0x3f
     c68:	4e ae       	std	Y+62, r4	; 0x3e
     c6a:	28 97       	sbiw	r28, 0x08	; 8
     c6c:	2a 96       	adiw	r28, 0x0a	; 10
     c6e:	7f ae       	std	Y+63, r7	; 0x3f
     c70:	6e ae       	std	Y+62, r6	; 0x3e
     c72:	2a 97       	sbiw	r28, 0x0a	; 10
     c74:	79 2c       	mov	r7, r9
     c76:	50 2e       	mov	r5, r16
     c78:	91 2e       	mov	r9, r17
     c7a:	e1 e0       	ldi	r30, 0x01	; 1
     c7c:	f0 e0       	ldi	r31, 0x00	; 0
     c7e:	ec 0f       	add	r30, r28
     c80:	fd 1f       	adc	r31, r29
     c82:	e7 0d       	add	r30, r7
     c84:	f1 1d       	adc	r31, r1
     c86:	26 96       	adiw	r28, 0x06	; 6
     c88:	ff af       	std	Y+63, r31	; 0x3f
     c8a:	ee af       	std	Y+62, r30	; 0x3e
     c8c:	26 97       	sbiw	r28, 0x06	; 6
     c8e:	0f 2e       	mov	r0, r31
     c90:	fa e0       	ldi	r31, 0x0A	; 10
     c92:	af 2e       	mov	r10, r31
     c94:	f0 2d       	mov	r31, r0
     c96:	b1 2c       	mov	r11, r1
     c98:	c1 2c       	mov	r12, r1
     c9a:	d1 2c       	mov	r13, r1
     c9c:	e1 2c       	mov	r14, r1
     c9e:	f1 2c       	mov	r15, r1
     ca0:	00 e0       	ldi	r16, 0x00	; 0
     ca2:	10 e0       	ldi	r17, 0x00	; 0
     ca4:	22 2d       	mov	r18, r2
     ca6:	33 2d       	mov	r19, r3
     ca8:	45 2d       	mov	r20, r5
     caa:	22 96       	adiw	r28, 0x02	; 2
     cac:	5f ad       	ldd	r21, Y+63	; 0x3f
     cae:	22 97       	sbiw	r28, 0x02	; 2
     cb0:	68 2d       	mov	r22, r8
     cb2:	79 2d       	mov	r23, r9
     cb4:	23 96       	adiw	r28, 0x03	; 3
     cb6:	8f ad       	ldd	r24, Y+63	; 0x3f
     cb8:	23 97       	sbiw	r28, 0x03	; 3
     cba:	24 96       	adiw	r28, 0x04	; 4
     cbc:	9f ad       	ldd	r25, Y+63	; 0x3f
     cbe:	24 97       	sbiw	r28, 0x04	; 4
     cc0:	fd d4       	rcall	.+2554   	; 0x16bc <__moddi3>
     cc2:	20 5d       	subi	r18, 0xD0	; 208
     cc4:	26 96       	adiw	r28, 0x06	; 6
     cc6:	ee ad       	ldd	r30, Y+62	; 0x3e
     cc8:	ff ad       	ldd	r31, Y+63	; 0x3f
     cca:	26 97       	sbiw	r28, 0x06	; 6
     ccc:	20 83       	st	Z, r18
     cce:	22 2d       	mov	r18, r2
     cd0:	33 2d       	mov	r19, r3
     cd2:	45 2d       	mov	r20, r5
     cd4:	22 96       	adiw	r28, 0x02	; 2
     cd6:	5f ad       	ldd	r21, Y+63	; 0x3f
     cd8:	22 97       	sbiw	r28, 0x02	; 2
     cda:	68 2d       	mov	r22, r8
     cdc:	79 2d       	mov	r23, r9
     cde:	23 96       	adiw	r28, 0x03	; 3
     ce0:	8f ad       	ldd	r24, Y+63	; 0x3f
     ce2:	23 97       	sbiw	r28, 0x03	; 3
     ce4:	24 96       	adiw	r28, 0x04	; 4
     ce6:	9f ad       	ldd	r25, Y+63	; 0x3f
     ce8:	24 97       	sbiw	r28, 0x04	; 4
     cea:	ea d4       	rcall	.+2516   	; 0x16c0 <__divdi3>
     cec:	22 2e       	mov	r2, r18
     cee:	33 2e       	mov	r3, r19
     cf0:	54 2e       	mov	r5, r20
     cf2:	22 96       	adiw	r28, 0x02	; 2
     cf4:	5f af       	std	Y+63, r21	; 0x3f
     cf6:	22 97       	sbiw	r28, 0x02	; 2
     cf8:	86 2e       	mov	r8, r22
     cfa:	97 2e       	mov	r9, r23
     cfc:	23 96       	adiw	r28, 0x03	; 3
     cfe:	8f af       	std	Y+63, r24	; 0x3f
     d00:	23 97       	sbiw	r28, 0x03	; 3
     d02:	24 96       	adiw	r28, 0x04	; 4
     d04:	9f af       	std	Y+63, r25	; 0x3f
     d06:	24 97       	sbiw	r28, 0x04	; 4
     d08:	7a 94       	dec	r7
     d0a:	a0 e0       	ldi	r26, 0x00	; 0
     d0c:	a7 d5       	rcall	.+2894   	; 0x185c <__cmpdi2_s8>
     d0e:	09 f0       	breq	.+2      	; 0xd12 <Serial_Send_Int+0x174>
     d10:	b4 cf       	rjmp	.-152    	; 0xc7a <Serial_Send_Int+0xdc>
     d12:	28 96       	adiw	r28, 0x08	; 8
     d14:	4e ac       	ldd	r4, Y+62	; 0x3e
     d16:	5f ac       	ldd	r5, Y+63	; 0x3f
     d18:	28 97       	sbiw	r28, 0x08	; 8
     d1a:	2a 96       	adiw	r28, 0x0a	; 10
     d1c:	6e ac       	ldd	r6, Y+62	; 0x3e
     d1e:	7f ac       	ldd	r7, Y+63	; 0x3f
     d20:	2a 97       	sbiw	r28, 0x0a	; 10
     d22:	f2 01       	movw	r30, r4
     d24:	81 91       	ld	r24, Z+
     d26:	2f 01       	movw	r4, r30
     d28:	81 11       	cpse	r24, r1
     d2a:	10 df       	rcall	.-480    	; 0xb4c <Serial_Tx>
     d2c:	46 14       	cp	r4, r6
     d2e:	57 04       	cpc	r5, r7
     d30:	c1 f7       	brne	.-16     	; 0xd22 <Serial_Send_Int+0x184>
     d32:	0e c0       	rjmp	.+28     	; 0xd50 <Serial_Send_Int+0x1b2>
     d34:	22 96       	adiw	r28, 0x02	; 2
     d36:	5f ad       	ldd	r21, Y+63	; 0x3f
     d38:	22 97       	sbiw	r28, 0x02	; 2
     d3a:	23 96       	adiw	r28, 0x03	; 3
     d3c:	8f ad       	ldd	r24, Y+63	; 0x3f
     d3e:	23 97       	sbiw	r28, 0x03	; 3
     d40:	24 96       	adiw	r28, 0x04	; 4
     d42:	9f ad       	ldd	r25, Y+63	; 0x3f
     d44:	24 97       	sbiw	r28, 0x04	; 4
     d46:	a0 e0       	ldi	r26, 0x00	; 0
     d48:	89 d5       	rcall	.+2834   	; 0x185c <__cmpdi2_s8>
     d4a:	09 f0       	breq	.+2      	; 0xd4e <Serial_Send_Int+0x1b0>
     d4c:	7b cf       	rjmp	.-266    	; 0xc44 <Serial_Send_Int+0xa6>
     d4e:	77 cf       	rjmp	.-274    	; 0xc3e <Serial_Send_Int+0xa0>
     d50:	c7 5b       	subi	r28, 0xB7	; 183
     d52:	df 4f       	sbci	r29, 0xFF	; 255
     d54:	0f b6       	in	r0, 0x3f	; 63
     d56:	f8 94       	cli
     d58:	de bf       	out	0x3e, r29	; 62
     d5a:	0f be       	out	0x3f, r0	; 63
     d5c:	cd bf       	out	0x3d, r28	; 61
     d5e:	df 91       	pop	r29
     d60:	cf 91       	pop	r28
     d62:	1f 91       	pop	r17
     d64:	0f 91       	pop	r16
     d66:	ff 90       	pop	r15
     d68:	ef 90       	pop	r14
     d6a:	df 90       	pop	r13
     d6c:	cf 90       	pop	r12
     d6e:	bf 90       	pop	r11
     d70:	af 90       	pop	r10
     d72:	9f 90       	pop	r9
     d74:	8f 90       	pop	r8
     d76:	7f 90       	pop	r7
     d78:	6f 90       	pop	r6
     d7a:	5f 90       	pop	r5
     d7c:	4f 90       	pop	r4
     d7e:	3f 90       	pop	r3
     d80:	2f 90       	pop	r2
     d82:	08 95       	ret

00000d84 <SerialN>:
     d84:	8d e0       	ldi	r24, 0x0D	; 13
     d86:	e2 de       	rcall	.-572    	; 0xb4c <Serial_Tx>
     d88:	8a e0       	ldi	r24, 0x0A	; 10
     d8a:	e0 ce       	rjmp	.-576    	; 0xb4c <Serial_Tx>
     d8c:	08 95       	ret

00000d8e <Serial_Send_Float>:
     d8e:	4f 92       	push	r4
     d90:	5f 92       	push	r5
     d92:	6f 92       	push	r6
     d94:	7f 92       	push	r7
     d96:	8f 92       	push	r8
     d98:	9f 92       	push	r9
     d9a:	af 92       	push	r10
     d9c:	bf 92       	push	r11
     d9e:	cf 92       	push	r12
     da0:	df 92       	push	r13
     da2:	ef 92       	push	r14
     da4:	ff 92       	push	r15
     da6:	0f 93       	push	r16
     da8:	1f 93       	push	r17
     daa:	cf 93       	push	r28
     dac:	df 93       	push	r29
     dae:	6b 01       	movw	r12, r22
     db0:	7c 01       	movw	r14, r24
     db2:	20 e0       	ldi	r18, 0x00	; 0
     db4:	30 e0       	ldi	r19, 0x00	; 0
     db6:	a9 01       	movw	r20, r18
     db8:	0e d1       	rcall	.+540    	; 0xfd6 <__cmpsf2>
     dba:	88 23       	and	r24, r24
     dbc:	3c f4       	brge	.+14     	; 0xdcc <Serial_Send_Float+0x3e>
     dbe:	88 e0       	ldi	r24, 0x08	; 8
     dc0:	91 e0       	ldi	r25, 0x01	; 1
     dc2:	cc de       	rcall	.-616    	; 0xb5c <Serial_Send_String>
     dc4:	f7 fa       	bst	r15, 7
     dc6:	f0 94       	com	r15
     dc8:	f7 f8       	bld	r15, 7
     dca:	f0 94       	com	r15
     dcc:	c7 01       	movw	r24, r14
     dce:	b6 01       	movw	r22, r12
     dd0:	6e d1       	rcall	.+732    	; 0x10ae <__fixsfsi>
     dd2:	2b 01       	movw	r4, r22
     dd4:	3c 01       	movw	r6, r24
     dd6:	4b 01       	movw	r8, r22
     dd8:	5c 01       	movw	r10, r24
     dda:	bb 0c       	add	r11, r11
     ddc:	88 08       	sbc	r8, r8
     dde:	98 2c       	mov	r9, r8
     de0:	54 01       	movw	r10, r8
     de2:	26 2f       	mov	r18, r22
     de4:	35 2d       	mov	r19, r5
     de6:	46 2d       	mov	r20, r6
     de8:	57 2d       	mov	r21, r7
     dea:	68 2d       	mov	r22, r8
     dec:	78 2d       	mov	r23, r8
     dee:	88 2d       	mov	r24, r8
     df0:	98 2d       	mov	r25, r8
     df2:	d5 de       	rcall	.-598    	; 0xb9e <Serial_Send_Int>
     df4:	c0 e0       	ldi	r28, 0x00	; 0
     df6:	d0 e0       	ldi	r29, 0x00	; 0
     df8:	0a c0       	rjmp	.+20     	; 0xe0e <Serial_Send_Float+0x80>
     dfa:	20 e0       	ldi	r18, 0x00	; 0
     dfc:	30 e0       	ldi	r19, 0x00	; 0
     dfe:	40 e2       	ldi	r20, 0x20	; 32
     e00:	51 e4       	ldi	r21, 0x41	; 65
     e02:	c7 01       	movw	r24, r14
     e04:	b6 01       	movw	r22, r12
     e06:	96 d2       	rcall	.+1324   	; 0x1334 <__mulsf3>
     e08:	6b 01       	movw	r12, r22
     e0a:	7c 01       	movw	r14, r24
     e0c:	21 96       	adiw	r28, 0x01	; 1
     e0e:	20 e0       	ldi	r18, 0x00	; 0
     e10:	30 e0       	ldi	r19, 0x00	; 0
     e12:	40 e8       	ldi	r20, 0x80	; 128
     e14:	5f e3       	ldi	r21, 0x3F	; 63
     e16:	c7 01       	movw	r24, r14
     e18:	b6 01       	movw	r22, r12
     e1a:	be d1       	rcall	.+892    	; 0x1198 <fmod>
     e1c:	20 e0       	ldi	r18, 0x00	; 0
     e1e:	30 e0       	ldi	r19, 0x00	; 0
     e20:	a9 01       	movw	r20, r18
     e22:	d9 d0       	rcall	.+434    	; 0xfd6 <__cmpsf2>
     e24:	81 11       	cpse	r24, r1
     e26:	e9 cf       	rjmp	.-46     	; 0xdfa <Serial_Send_Float+0x6c>
     e28:	be 01       	movw	r22, r28
     e2a:	0d 2e       	mov	r0, r29
     e2c:	00 0c       	add	r0, r0
     e2e:	88 0b       	sbc	r24, r24
     e30:	99 0b       	sbc	r25, r25
     e32:	70 d1       	rcall	.+736    	; 0x1114 <__floatsisf>
     e34:	9b 01       	movw	r18, r22
     e36:	ac 01       	movw	r20, r24
     e38:	60 e0       	ldi	r22, 0x00	; 0
     e3a:	70 e0       	ldi	r23, 0x00	; 0
     e3c:	80 e2       	ldi	r24, 0x20	; 32
     e3e:	91 e4       	ldi	r25, 0x41	; 65
     e40:	dc d2       	rcall	.+1464   	; 0x13fa <pow>
     e42:	4b 01       	movw	r8, r22
     e44:	5c 01       	movw	r10, r24
     e46:	c3 01       	movw	r24, r6
     e48:	b2 01       	movw	r22, r4
     e4a:	64 d1       	rcall	.+712    	; 0x1114 <__floatsisf>
     e4c:	a5 01       	movw	r20, r10
     e4e:	94 01       	movw	r18, r8
     e50:	71 d2       	rcall	.+1250   	; 0x1334 <__mulsf3>
     e52:	2d d1       	rcall	.+602    	; 0x10ae <__fixsfsi>
     e54:	5f d1       	rcall	.+702    	; 0x1114 <__floatsisf>
     e56:	9b 01       	movw	r18, r22
     e58:	ac 01       	movw	r20, r24
     e5a:	c7 01       	movw	r24, r14
     e5c:	b6 01       	movw	r22, r12
     e5e:	56 d0       	rcall	.+172    	; 0xf0c <__subsf3>
     e60:	6b 01       	movw	r12, r22
     e62:	7c 01       	movw	r14, r24
     e64:	24 d1       	rcall	.+584    	; 0x10ae <__fixsfsi>
     e66:	4b 01       	movw	r8, r22
     e68:	5c 01       	movw	r10, r24
     e6a:	20 e0       	ldi	r18, 0x00	; 0
     e6c:	30 e0       	ldi	r19, 0x00	; 0
     e6e:	40 e8       	ldi	r20, 0x80	; 128
     e70:	5f e3       	ldi	r21, 0x3F	; 63
     e72:	c7 01       	movw	r24, r14
     e74:	b6 01       	movw	r22, r12
     e76:	5a d2       	rcall	.+1204   	; 0x132c <__gesf2>
     e78:	18 16       	cp	r1, r24
     e7a:	ac f4       	brge	.+42     	; 0xea6 <Serial_Send_Float+0x118>
     e7c:	00 e0       	ldi	r16, 0x00	; 0
     e7e:	10 e0       	ldi	r17, 0x00	; 0
     e80:	20 e0       	ldi	r18, 0x00	; 0
     e82:	30 e0       	ldi	r19, 0x00	; 0
     e84:	40 e2       	ldi	r20, 0x20	; 32
     e86:	51 e4       	ldi	r21, 0x41	; 65
     e88:	c7 01       	movw	r24, r14
     e8a:	b6 01       	movw	r22, r12
     e8c:	a8 d0       	rcall	.+336    	; 0xfde <__divsf3>
     e8e:	6b 01       	movw	r12, r22
     e90:	7c 01       	movw	r14, r24
     e92:	0f 5f       	subi	r16, 0xFF	; 255
     e94:	1f 4f       	sbci	r17, 0xFF	; 255
     e96:	20 e0       	ldi	r18, 0x00	; 0
     e98:	30 e0       	ldi	r19, 0x00	; 0
     e9a:	40 e8       	ldi	r20, 0x80	; 128
     e9c:	5f e3       	ldi	r21, 0x3F	; 63
     e9e:	46 d2       	rcall	.+1164   	; 0x132c <__gesf2>
     ea0:	18 16       	cp	r1, r24
     ea2:	74 f3       	brlt	.-36     	; 0xe80 <Serial_Send_Float+0xf2>
     ea4:	02 c0       	rjmp	.+4      	; 0xeaa <Serial_Send_Float+0x11c>
     ea6:	00 e0       	ldi	r16, 0x00	; 0
     ea8:	10 e0       	ldi	r17, 0x00	; 0
     eaa:	c0 1b       	sub	r28, r16
     eac:	d1 0b       	sbc	r29, r17
     eae:	8a e0       	ldi	r24, 0x0A	; 10
     eb0:	91 e0       	ldi	r25, 0x01	; 1
     eb2:	54 de       	rcall	.-856    	; 0xb5c <Serial_Send_String>
     eb4:	1c 16       	cp	r1, r28
     eb6:	1d 06       	cpc	r1, r29
     eb8:	4c f4       	brge	.+18     	; 0xecc <Serial_Send_Float+0x13e>
     eba:	00 e0       	ldi	r16, 0x00	; 0
     ebc:	10 e0       	ldi	r17, 0x00	; 0
     ebe:	80 e3       	ldi	r24, 0x30	; 48
     ec0:	45 de       	rcall	.-886    	; 0xb4c <Serial_Tx>
     ec2:	0f 5f       	subi	r16, 0xFF	; 255
     ec4:	1f 4f       	sbci	r17, 0xFF	; 255
     ec6:	c0 17       	cp	r28, r16
     ec8:	d1 07       	cpc	r29, r17
     eca:	c9 f7       	brne	.-14     	; 0xebe <Serial_Send_Float+0x130>
     ecc:	75 01       	movw	r14, r10
     ece:	64 01       	movw	r12, r8
     ed0:	ff 0c       	add	r15, r15
     ed2:	cc 08       	sbc	r12, r12
     ed4:	dc 2c       	mov	r13, r12
     ed6:	76 01       	movw	r14, r12
     ed8:	28 2d       	mov	r18, r8
     eda:	39 2d       	mov	r19, r9
     edc:	4a 2d       	mov	r20, r10
     ede:	5b 2d       	mov	r21, r11
     ee0:	6c 2d       	mov	r22, r12
     ee2:	7c 2d       	mov	r23, r12
     ee4:	8c 2d       	mov	r24, r12
     ee6:	9c 2d       	mov	r25, r12
     ee8:	5a de       	rcall	.-844    	; 0xb9e <Serial_Send_Int>
     eea:	df 91       	pop	r29
     eec:	cf 91       	pop	r28
     eee:	1f 91       	pop	r17
     ef0:	0f 91       	pop	r16
     ef2:	ff 90       	pop	r15
     ef4:	ef 90       	pop	r14
     ef6:	df 90       	pop	r13
     ef8:	cf 90       	pop	r12
     efa:	bf 90       	pop	r11
     efc:	af 90       	pop	r10
     efe:	9f 90       	pop	r9
     f00:	8f 90       	pop	r8
     f02:	7f 90       	pop	r7
     f04:	6f 90       	pop	r6
     f06:	5f 90       	pop	r5
     f08:	4f 90       	pop	r4
     f0a:	08 95       	ret

00000f0c <__subsf3>:
     f0c:	50 58       	subi	r21, 0x80	; 128

00000f0e <__addsf3>:
     f0e:	bb 27       	eor	r27, r27
     f10:	aa 27       	eor	r26, r26
     f12:	0e d0       	rcall	.+28     	; 0xf30 <__addsf3x>
     f14:	d1 c1       	rjmp	.+930    	; 0x12b8 <__fp_round>
     f16:	c2 d1       	rcall	.+900    	; 0x129c <__fp_pscA>
     f18:	30 f0       	brcs	.+12     	; 0xf26 <__addsf3+0x18>
     f1a:	c7 d1       	rcall	.+910    	; 0x12aa <__fp_pscB>
     f1c:	20 f0       	brcs	.+8      	; 0xf26 <__addsf3+0x18>
     f1e:	31 f4       	brne	.+12     	; 0xf2c <__addsf3+0x1e>
     f20:	9f 3f       	cpi	r25, 0xFF	; 255
     f22:	11 f4       	brne	.+4      	; 0xf28 <__addsf3+0x1a>
     f24:	1e f4       	brtc	.+6      	; 0xf2c <__addsf3+0x1e>
     f26:	b7 c1       	rjmp	.+878    	; 0x1296 <__fp_nan>
     f28:	0e f4       	brtc	.+2      	; 0xf2c <__addsf3+0x1e>
     f2a:	e0 95       	com	r30
     f2c:	e7 fb       	bst	r30, 7
     f2e:	9f c1       	rjmp	.+830    	; 0x126e <__fp_inf>

00000f30 <__addsf3x>:
     f30:	e9 2f       	mov	r30, r25
     f32:	d3 d1       	rcall	.+934    	; 0x12da <__fp_split3>
     f34:	80 f3       	brcs	.-32     	; 0xf16 <__addsf3+0x8>
     f36:	ba 17       	cp	r27, r26
     f38:	62 07       	cpc	r22, r18
     f3a:	73 07       	cpc	r23, r19
     f3c:	84 07       	cpc	r24, r20
     f3e:	95 07       	cpc	r25, r21
     f40:	18 f0       	brcs	.+6      	; 0xf48 <__addsf3x+0x18>
     f42:	71 f4       	brne	.+28     	; 0xf60 <__addsf3x+0x30>
     f44:	9e f5       	brtc	.+102    	; 0xfac <__addsf3x+0x7c>
     f46:	eb c1       	rjmp	.+982    	; 0x131e <__fp_zero>
     f48:	0e f4       	brtc	.+2      	; 0xf4c <__addsf3x+0x1c>
     f4a:	e0 95       	com	r30
     f4c:	0b 2e       	mov	r0, r27
     f4e:	ba 2f       	mov	r27, r26
     f50:	a0 2d       	mov	r26, r0
     f52:	0b 01       	movw	r0, r22
     f54:	b9 01       	movw	r22, r18
     f56:	90 01       	movw	r18, r0
     f58:	0c 01       	movw	r0, r24
     f5a:	ca 01       	movw	r24, r20
     f5c:	a0 01       	movw	r20, r0
     f5e:	11 24       	eor	r1, r1
     f60:	ff 27       	eor	r31, r31
     f62:	59 1b       	sub	r21, r25
     f64:	99 f0       	breq	.+38     	; 0xf8c <__addsf3x+0x5c>
     f66:	59 3f       	cpi	r21, 0xF9	; 249
     f68:	50 f4       	brcc	.+20     	; 0xf7e <__addsf3x+0x4e>
     f6a:	50 3e       	cpi	r21, 0xE0	; 224
     f6c:	68 f1       	brcs	.+90     	; 0xfc8 <__addsf3x+0x98>
     f6e:	1a 16       	cp	r1, r26
     f70:	f0 40       	sbci	r31, 0x00	; 0
     f72:	a2 2f       	mov	r26, r18
     f74:	23 2f       	mov	r18, r19
     f76:	34 2f       	mov	r19, r20
     f78:	44 27       	eor	r20, r20
     f7a:	58 5f       	subi	r21, 0xF8	; 248
     f7c:	f3 cf       	rjmp	.-26     	; 0xf64 <__addsf3x+0x34>
     f7e:	46 95       	lsr	r20
     f80:	37 95       	ror	r19
     f82:	27 95       	ror	r18
     f84:	a7 95       	ror	r26
     f86:	f0 40       	sbci	r31, 0x00	; 0
     f88:	53 95       	inc	r21
     f8a:	c9 f7       	brne	.-14     	; 0xf7e <__addsf3x+0x4e>
     f8c:	7e f4       	brtc	.+30     	; 0xfac <__addsf3x+0x7c>
     f8e:	1f 16       	cp	r1, r31
     f90:	ba 0b       	sbc	r27, r26
     f92:	62 0b       	sbc	r22, r18
     f94:	73 0b       	sbc	r23, r19
     f96:	84 0b       	sbc	r24, r20
     f98:	ba f0       	brmi	.+46     	; 0xfc8 <__addsf3x+0x98>
     f9a:	91 50       	subi	r25, 0x01	; 1
     f9c:	a1 f0       	breq	.+40     	; 0xfc6 <__addsf3x+0x96>
     f9e:	ff 0f       	add	r31, r31
     fa0:	bb 1f       	adc	r27, r27
     fa2:	66 1f       	adc	r22, r22
     fa4:	77 1f       	adc	r23, r23
     fa6:	88 1f       	adc	r24, r24
     fa8:	c2 f7       	brpl	.-16     	; 0xf9a <__addsf3x+0x6a>
     faa:	0e c0       	rjmp	.+28     	; 0xfc8 <__addsf3x+0x98>
     fac:	ba 0f       	add	r27, r26
     fae:	62 1f       	adc	r22, r18
     fb0:	73 1f       	adc	r23, r19
     fb2:	84 1f       	adc	r24, r20
     fb4:	48 f4       	brcc	.+18     	; 0xfc8 <__addsf3x+0x98>
     fb6:	87 95       	ror	r24
     fb8:	77 95       	ror	r23
     fba:	67 95       	ror	r22
     fbc:	b7 95       	ror	r27
     fbe:	f7 95       	ror	r31
     fc0:	9e 3f       	cpi	r25, 0xFE	; 254
     fc2:	08 f0       	brcs	.+2      	; 0xfc6 <__addsf3x+0x96>
     fc4:	b3 cf       	rjmp	.-154    	; 0xf2c <__addsf3+0x1e>
     fc6:	93 95       	inc	r25
     fc8:	88 0f       	add	r24, r24
     fca:	08 f0       	brcs	.+2      	; 0xfce <__addsf3x+0x9e>
     fcc:	99 27       	eor	r25, r25
     fce:	ee 0f       	add	r30, r30
     fd0:	97 95       	ror	r25
     fd2:	87 95       	ror	r24
     fd4:	08 95       	ret

00000fd6 <__cmpsf2>:
     fd6:	27 d1       	rcall	.+590    	; 0x1226 <__fp_cmp>
     fd8:	08 f4       	brcc	.+2      	; 0xfdc <__cmpsf2+0x6>
     fda:	81 e0       	ldi	r24, 0x01	; 1
     fdc:	08 95       	ret

00000fde <__divsf3>:
     fde:	0c d0       	rcall	.+24     	; 0xff8 <__divsf3x>
     fe0:	6b c1       	rjmp	.+726    	; 0x12b8 <__fp_round>
     fe2:	63 d1       	rcall	.+710    	; 0x12aa <__fp_pscB>
     fe4:	40 f0       	brcs	.+16     	; 0xff6 <__divsf3+0x18>
     fe6:	5a d1       	rcall	.+692    	; 0x129c <__fp_pscA>
     fe8:	30 f0       	brcs	.+12     	; 0xff6 <__divsf3+0x18>
     fea:	21 f4       	brne	.+8      	; 0xff4 <__divsf3+0x16>
     fec:	5f 3f       	cpi	r21, 0xFF	; 255
     fee:	19 f0       	breq	.+6      	; 0xff6 <__divsf3+0x18>
     ff0:	3e c1       	rjmp	.+636    	; 0x126e <__fp_inf>
     ff2:	51 11       	cpse	r21, r1
     ff4:	95 c1       	rjmp	.+810    	; 0x1320 <__fp_szero>
     ff6:	4f c1       	rjmp	.+670    	; 0x1296 <__fp_nan>

00000ff8 <__divsf3x>:
     ff8:	70 d1       	rcall	.+736    	; 0x12da <__fp_split3>
     ffa:	98 f3       	brcs	.-26     	; 0xfe2 <__divsf3+0x4>

00000ffc <__divsf3_pse>:
     ffc:	99 23       	and	r25, r25
     ffe:	c9 f3       	breq	.-14     	; 0xff2 <__divsf3+0x14>
    1000:	55 23       	and	r21, r21
    1002:	b1 f3       	breq	.-20     	; 0xff0 <__divsf3+0x12>
    1004:	95 1b       	sub	r25, r21
    1006:	55 0b       	sbc	r21, r21
    1008:	bb 27       	eor	r27, r27
    100a:	aa 27       	eor	r26, r26
    100c:	62 17       	cp	r22, r18
    100e:	73 07       	cpc	r23, r19
    1010:	84 07       	cpc	r24, r20
    1012:	38 f0       	brcs	.+14     	; 0x1022 <__divsf3_pse+0x26>
    1014:	9f 5f       	subi	r25, 0xFF	; 255
    1016:	5f 4f       	sbci	r21, 0xFF	; 255
    1018:	22 0f       	add	r18, r18
    101a:	33 1f       	adc	r19, r19
    101c:	44 1f       	adc	r20, r20
    101e:	aa 1f       	adc	r26, r26
    1020:	a9 f3       	breq	.-22     	; 0x100c <__divsf3_pse+0x10>
    1022:	33 d0       	rcall	.+102    	; 0x108a <__divsf3_pse+0x8e>
    1024:	0e 2e       	mov	r0, r30
    1026:	3a f0       	brmi	.+14     	; 0x1036 <__divsf3_pse+0x3a>
    1028:	e0 e8       	ldi	r30, 0x80	; 128
    102a:	30 d0       	rcall	.+96     	; 0x108c <__divsf3_pse+0x90>
    102c:	91 50       	subi	r25, 0x01	; 1
    102e:	50 40       	sbci	r21, 0x00	; 0
    1030:	e6 95       	lsr	r30
    1032:	00 1c       	adc	r0, r0
    1034:	ca f7       	brpl	.-14     	; 0x1028 <__divsf3_pse+0x2c>
    1036:	29 d0       	rcall	.+82     	; 0x108a <__divsf3_pse+0x8e>
    1038:	fe 2f       	mov	r31, r30
    103a:	27 d0       	rcall	.+78     	; 0x108a <__divsf3_pse+0x8e>
    103c:	66 0f       	add	r22, r22
    103e:	77 1f       	adc	r23, r23
    1040:	88 1f       	adc	r24, r24
    1042:	bb 1f       	adc	r27, r27
    1044:	26 17       	cp	r18, r22
    1046:	37 07       	cpc	r19, r23
    1048:	48 07       	cpc	r20, r24
    104a:	ab 07       	cpc	r26, r27
    104c:	b0 e8       	ldi	r27, 0x80	; 128
    104e:	09 f0       	breq	.+2      	; 0x1052 <__divsf3_pse+0x56>
    1050:	bb 0b       	sbc	r27, r27
    1052:	80 2d       	mov	r24, r0
    1054:	bf 01       	movw	r22, r30
    1056:	ff 27       	eor	r31, r31
    1058:	93 58       	subi	r25, 0x83	; 131
    105a:	5f 4f       	sbci	r21, 0xFF	; 255
    105c:	2a f0       	brmi	.+10     	; 0x1068 <__divsf3_pse+0x6c>
    105e:	9e 3f       	cpi	r25, 0xFE	; 254
    1060:	51 05       	cpc	r21, r1
    1062:	68 f0       	brcs	.+26     	; 0x107e <__divsf3_pse+0x82>
    1064:	04 c1       	rjmp	.+520    	; 0x126e <__fp_inf>
    1066:	5c c1       	rjmp	.+696    	; 0x1320 <__fp_szero>
    1068:	5f 3f       	cpi	r21, 0xFF	; 255
    106a:	ec f3       	brlt	.-6      	; 0x1066 <__divsf3_pse+0x6a>
    106c:	98 3e       	cpi	r25, 0xE8	; 232
    106e:	dc f3       	brlt	.-10     	; 0x1066 <__divsf3_pse+0x6a>
    1070:	86 95       	lsr	r24
    1072:	77 95       	ror	r23
    1074:	67 95       	ror	r22
    1076:	b7 95       	ror	r27
    1078:	f7 95       	ror	r31
    107a:	9f 5f       	subi	r25, 0xFF	; 255
    107c:	c9 f7       	brne	.-14     	; 0x1070 <__divsf3_pse+0x74>
    107e:	88 0f       	add	r24, r24
    1080:	91 1d       	adc	r25, r1
    1082:	96 95       	lsr	r25
    1084:	87 95       	ror	r24
    1086:	97 f9       	bld	r25, 7
    1088:	08 95       	ret
    108a:	e1 e0       	ldi	r30, 0x01	; 1
    108c:	66 0f       	add	r22, r22
    108e:	77 1f       	adc	r23, r23
    1090:	88 1f       	adc	r24, r24
    1092:	bb 1f       	adc	r27, r27
    1094:	62 17       	cp	r22, r18
    1096:	73 07       	cpc	r23, r19
    1098:	84 07       	cpc	r24, r20
    109a:	ba 07       	cpc	r27, r26
    109c:	20 f0       	brcs	.+8      	; 0x10a6 <__divsf3_pse+0xaa>
    109e:	62 1b       	sub	r22, r18
    10a0:	73 0b       	sbc	r23, r19
    10a2:	84 0b       	sbc	r24, r20
    10a4:	ba 0b       	sbc	r27, r26
    10a6:	ee 1f       	adc	r30, r30
    10a8:	88 f7       	brcc	.-30     	; 0x108c <__divsf3_pse+0x90>
    10aa:	e0 95       	com	r30
    10ac:	08 95       	ret

000010ae <__fixsfsi>:
    10ae:	04 d0       	rcall	.+8      	; 0x10b8 <__fixunssfsi>
    10b0:	68 94       	set
    10b2:	b1 11       	cpse	r27, r1
    10b4:	35 c1       	rjmp	.+618    	; 0x1320 <__fp_szero>
    10b6:	08 95       	ret

000010b8 <__fixunssfsi>:
    10b8:	18 d1       	rcall	.+560    	; 0x12ea <__fp_splitA>
    10ba:	88 f0       	brcs	.+34     	; 0x10de <__fixunssfsi+0x26>
    10bc:	9f 57       	subi	r25, 0x7F	; 127
    10be:	90 f0       	brcs	.+36     	; 0x10e4 <__fixunssfsi+0x2c>
    10c0:	b9 2f       	mov	r27, r25
    10c2:	99 27       	eor	r25, r25
    10c4:	b7 51       	subi	r27, 0x17	; 23
    10c6:	a0 f0       	brcs	.+40     	; 0x10f0 <__fixunssfsi+0x38>
    10c8:	d1 f0       	breq	.+52     	; 0x10fe <__fixunssfsi+0x46>
    10ca:	66 0f       	add	r22, r22
    10cc:	77 1f       	adc	r23, r23
    10ce:	88 1f       	adc	r24, r24
    10d0:	99 1f       	adc	r25, r25
    10d2:	1a f0       	brmi	.+6      	; 0x10da <__fixunssfsi+0x22>
    10d4:	ba 95       	dec	r27
    10d6:	c9 f7       	brne	.-14     	; 0x10ca <__fixunssfsi+0x12>
    10d8:	12 c0       	rjmp	.+36     	; 0x10fe <__fixunssfsi+0x46>
    10da:	b1 30       	cpi	r27, 0x01	; 1
    10dc:	81 f0       	breq	.+32     	; 0x10fe <__fixunssfsi+0x46>
    10de:	1f d1       	rcall	.+574    	; 0x131e <__fp_zero>
    10e0:	b1 e0       	ldi	r27, 0x01	; 1
    10e2:	08 95       	ret
    10e4:	1c c1       	rjmp	.+568    	; 0x131e <__fp_zero>
    10e6:	67 2f       	mov	r22, r23
    10e8:	78 2f       	mov	r23, r24
    10ea:	88 27       	eor	r24, r24
    10ec:	b8 5f       	subi	r27, 0xF8	; 248
    10ee:	39 f0       	breq	.+14     	; 0x10fe <__fixunssfsi+0x46>
    10f0:	b9 3f       	cpi	r27, 0xF9	; 249
    10f2:	cc f3       	brlt	.-14     	; 0x10e6 <__fixunssfsi+0x2e>
    10f4:	86 95       	lsr	r24
    10f6:	77 95       	ror	r23
    10f8:	67 95       	ror	r22
    10fa:	b3 95       	inc	r27
    10fc:	d9 f7       	brne	.-10     	; 0x10f4 <__fixunssfsi+0x3c>
    10fe:	3e f4       	brtc	.+14     	; 0x110e <__fixunssfsi+0x56>
    1100:	90 95       	com	r25
    1102:	80 95       	com	r24
    1104:	70 95       	com	r23
    1106:	61 95       	neg	r22
    1108:	7f 4f       	sbci	r23, 0xFF	; 255
    110a:	8f 4f       	sbci	r24, 0xFF	; 255
    110c:	9f 4f       	sbci	r25, 0xFF	; 255
    110e:	08 95       	ret

00001110 <__floatunsisf>:
    1110:	e8 94       	clt
    1112:	09 c0       	rjmp	.+18     	; 0x1126 <__floatsisf+0x12>

00001114 <__floatsisf>:
    1114:	97 fb       	bst	r25, 7
    1116:	3e f4       	brtc	.+14     	; 0x1126 <__floatsisf+0x12>
    1118:	90 95       	com	r25
    111a:	80 95       	com	r24
    111c:	70 95       	com	r23
    111e:	61 95       	neg	r22
    1120:	7f 4f       	sbci	r23, 0xFF	; 255
    1122:	8f 4f       	sbci	r24, 0xFF	; 255
    1124:	9f 4f       	sbci	r25, 0xFF	; 255
    1126:	99 23       	and	r25, r25
    1128:	a9 f0       	breq	.+42     	; 0x1154 <__floatsisf+0x40>
    112a:	f9 2f       	mov	r31, r25
    112c:	96 e9       	ldi	r25, 0x96	; 150
    112e:	bb 27       	eor	r27, r27
    1130:	93 95       	inc	r25
    1132:	f6 95       	lsr	r31
    1134:	87 95       	ror	r24
    1136:	77 95       	ror	r23
    1138:	67 95       	ror	r22
    113a:	b7 95       	ror	r27
    113c:	f1 11       	cpse	r31, r1
    113e:	f8 cf       	rjmp	.-16     	; 0x1130 <__floatsisf+0x1c>
    1140:	fa f4       	brpl	.+62     	; 0x1180 <__floatsisf+0x6c>
    1142:	bb 0f       	add	r27, r27
    1144:	11 f4       	brne	.+4      	; 0x114a <__floatsisf+0x36>
    1146:	60 ff       	sbrs	r22, 0
    1148:	1b c0       	rjmp	.+54     	; 0x1180 <__floatsisf+0x6c>
    114a:	6f 5f       	subi	r22, 0xFF	; 255
    114c:	7f 4f       	sbci	r23, 0xFF	; 255
    114e:	8f 4f       	sbci	r24, 0xFF	; 255
    1150:	9f 4f       	sbci	r25, 0xFF	; 255
    1152:	16 c0       	rjmp	.+44     	; 0x1180 <__floatsisf+0x6c>
    1154:	88 23       	and	r24, r24
    1156:	11 f0       	breq	.+4      	; 0x115c <__floatsisf+0x48>
    1158:	96 e9       	ldi	r25, 0x96	; 150
    115a:	11 c0       	rjmp	.+34     	; 0x117e <__floatsisf+0x6a>
    115c:	77 23       	and	r23, r23
    115e:	21 f0       	breq	.+8      	; 0x1168 <__floatsisf+0x54>
    1160:	9e e8       	ldi	r25, 0x8E	; 142
    1162:	87 2f       	mov	r24, r23
    1164:	76 2f       	mov	r23, r22
    1166:	05 c0       	rjmp	.+10     	; 0x1172 <__floatsisf+0x5e>
    1168:	66 23       	and	r22, r22
    116a:	71 f0       	breq	.+28     	; 0x1188 <__floatsisf+0x74>
    116c:	96 e8       	ldi	r25, 0x86	; 134
    116e:	86 2f       	mov	r24, r22
    1170:	70 e0       	ldi	r23, 0x00	; 0
    1172:	60 e0       	ldi	r22, 0x00	; 0
    1174:	2a f0       	brmi	.+10     	; 0x1180 <__floatsisf+0x6c>
    1176:	9a 95       	dec	r25
    1178:	66 0f       	add	r22, r22
    117a:	77 1f       	adc	r23, r23
    117c:	88 1f       	adc	r24, r24
    117e:	da f7       	brpl	.-10     	; 0x1176 <__floatsisf+0x62>
    1180:	88 0f       	add	r24, r24
    1182:	96 95       	lsr	r25
    1184:	87 95       	ror	r24
    1186:	97 f9       	bld	r25, 7
    1188:	08 95       	ret
    118a:	88 d0       	rcall	.+272    	; 0x129c <__fp_pscA>
    118c:	18 f0       	brcs	.+6      	; 0x1194 <__floatsisf+0x80>
    118e:	11 f0       	breq	.+4      	; 0x1194 <__floatsisf+0x80>
    1190:	8c d0       	rcall	.+280    	; 0x12aa <__fp_pscB>
    1192:	38 f4       	brcc	.+14     	; 0x11a2 <fmod+0xa>
    1194:	80 c0       	rjmp	.+256    	; 0x1296 <__fp_nan>
    1196:	c4 c0       	rjmp	.+392    	; 0x1320 <__fp_szero>

00001198 <fmod>:
    1198:	e9 2f       	mov	r30, r25
    119a:	9f d0       	rcall	.+318    	; 0x12da <__fp_split3>
    119c:	b0 f3       	brcs	.-20     	; 0x118a <__floatsisf+0x76>
    119e:	55 23       	and	r21, r21
    11a0:	c9 f3       	breq	.-14     	; 0x1194 <__floatsisf+0x80>
    11a2:	e7 fb       	bst	r30, 7
    11a4:	62 17       	cp	r22, r18
    11a6:	73 07       	cpc	r23, r19
    11a8:	84 07       	cpc	r24, r20
    11aa:	95 07       	cpc	r25, r21
    11ac:	a8 f1       	brcs	.+106    	; 0x1218 <fmod+0x80>
    11ae:	99 f3       	breq	.-26     	; 0x1196 <__floatsisf+0x82>
    11b0:	e9 2f       	mov	r30, r25
    11b2:	ff 27       	eor	r31, r31
    11b4:	88 23       	and	r24, r24
    11b6:	2a f0       	brmi	.+10     	; 0x11c2 <fmod+0x2a>
    11b8:	31 97       	sbiw	r30, 0x01	; 1
    11ba:	66 0f       	add	r22, r22
    11bc:	77 1f       	adc	r23, r23
    11be:	88 1f       	adc	r24, r24
    11c0:	da f7       	brpl	.-10     	; 0x11b8 <fmod+0x20>
    11c2:	95 2f       	mov	r25, r21
    11c4:	55 27       	eor	r21, r21
    11c6:	44 23       	and	r20, r20
    11c8:	32 f0       	brmi	.+12     	; 0x11d6 <fmod+0x3e>
    11ca:	91 50       	subi	r25, 0x01	; 1
    11cc:	50 40       	sbci	r21, 0x00	; 0
    11ce:	22 0f       	add	r18, r18
    11d0:	33 1f       	adc	r19, r19
    11d2:	44 1f       	adc	r20, r20
    11d4:	d2 f7       	brpl	.-12     	; 0x11ca <fmod+0x32>
    11d6:	bb 27       	eor	r27, r27
    11d8:	e9 1b       	sub	r30, r25
    11da:	f5 0b       	sbc	r31, r21
    11dc:	62 1b       	sub	r22, r18
    11de:	73 0b       	sbc	r23, r19
    11e0:	84 0b       	sbc	r24, r20
    11e2:	b1 09       	sbc	r27, r1
    11e4:	c1 f2       	breq	.-80     	; 0x1196 <__floatsisf+0x82>
    11e6:	22 f4       	brpl	.+8      	; 0x11f0 <fmod+0x58>
    11e8:	62 0f       	add	r22, r18
    11ea:	73 1f       	adc	r23, r19
    11ec:	84 1f       	adc	r24, r20
    11ee:	b1 1d       	adc	r27, r1
    11f0:	31 97       	sbiw	r30, 0x01	; 1
    11f2:	2a f0       	brmi	.+10     	; 0x11fe <fmod+0x66>
    11f4:	66 0f       	add	r22, r22
    11f6:	77 1f       	adc	r23, r23
    11f8:	88 1f       	adc	r24, r24
    11fa:	bb 1f       	adc	r27, r27
    11fc:	ef cf       	rjmp	.-34     	; 0x11dc <fmod+0x44>
    11fe:	91 50       	subi	r25, 0x01	; 1
    1200:	50 40       	sbci	r21, 0x00	; 0
    1202:	5a f0       	brmi	.+22     	; 0x121a <fmod+0x82>
    1204:	41 f0       	breq	.+16     	; 0x1216 <fmod+0x7e>
    1206:	88 23       	and	r24, r24
    1208:	32 f0       	brmi	.+12     	; 0x1216 <fmod+0x7e>
    120a:	66 0f       	add	r22, r22
    120c:	77 1f       	adc	r23, r23
    120e:	88 1f       	adc	r24, r24
    1210:	91 50       	subi	r25, 0x01	; 1
    1212:	50 40       	sbci	r21, 0x00	; 0
    1214:	c1 f7       	brne	.-16     	; 0x1206 <fmod+0x6e>
    1216:	93 95       	inc	r25
    1218:	30 c0       	rjmp	.+96     	; 0x127a <__fp_mpack>
    121a:	86 95       	lsr	r24
    121c:	77 95       	ror	r23
    121e:	67 95       	ror	r22
    1220:	9f 5f       	subi	r25, 0xFF	; 255
    1222:	d9 f7       	brne	.-10     	; 0x121a <fmod+0x82>
    1224:	f8 cf       	rjmp	.-16     	; 0x1216 <fmod+0x7e>

00001226 <__fp_cmp>:
    1226:	99 0f       	add	r25, r25
    1228:	00 08       	sbc	r0, r0
    122a:	55 0f       	add	r21, r21
    122c:	aa 0b       	sbc	r26, r26
    122e:	e0 e8       	ldi	r30, 0x80	; 128
    1230:	fe ef       	ldi	r31, 0xFE	; 254
    1232:	16 16       	cp	r1, r22
    1234:	17 06       	cpc	r1, r23
    1236:	e8 07       	cpc	r30, r24
    1238:	f9 07       	cpc	r31, r25
    123a:	c0 f0       	brcs	.+48     	; 0x126c <__fp_cmp+0x46>
    123c:	12 16       	cp	r1, r18
    123e:	13 06       	cpc	r1, r19
    1240:	e4 07       	cpc	r30, r20
    1242:	f5 07       	cpc	r31, r21
    1244:	98 f0       	brcs	.+38     	; 0x126c <__fp_cmp+0x46>
    1246:	62 1b       	sub	r22, r18
    1248:	73 0b       	sbc	r23, r19
    124a:	84 0b       	sbc	r24, r20
    124c:	95 0b       	sbc	r25, r21
    124e:	39 f4       	brne	.+14     	; 0x125e <__fp_cmp+0x38>
    1250:	0a 26       	eor	r0, r26
    1252:	61 f0       	breq	.+24     	; 0x126c <__fp_cmp+0x46>
    1254:	23 2b       	or	r18, r19
    1256:	24 2b       	or	r18, r20
    1258:	25 2b       	or	r18, r21
    125a:	21 f4       	brne	.+8      	; 0x1264 <__fp_cmp+0x3e>
    125c:	08 95       	ret
    125e:	0a 26       	eor	r0, r26
    1260:	09 f4       	brne	.+2      	; 0x1264 <__fp_cmp+0x3e>
    1262:	a1 40       	sbci	r26, 0x01	; 1
    1264:	a6 95       	lsr	r26
    1266:	8f ef       	ldi	r24, 0xFF	; 255
    1268:	81 1d       	adc	r24, r1
    126a:	81 1d       	adc	r24, r1
    126c:	08 95       	ret

0000126e <__fp_inf>:
    126e:	97 f9       	bld	r25, 7
    1270:	9f 67       	ori	r25, 0x7F	; 127
    1272:	80 e8       	ldi	r24, 0x80	; 128
    1274:	70 e0       	ldi	r23, 0x00	; 0
    1276:	60 e0       	ldi	r22, 0x00	; 0
    1278:	08 95       	ret

0000127a <__fp_mpack>:
    127a:	9f 3f       	cpi	r25, 0xFF	; 255
    127c:	31 f0       	breq	.+12     	; 0x128a <__fp_mpack_finite+0xc>

0000127e <__fp_mpack_finite>:
    127e:	91 50       	subi	r25, 0x01	; 1
    1280:	20 f4       	brcc	.+8      	; 0x128a <__fp_mpack_finite+0xc>
    1282:	87 95       	ror	r24
    1284:	77 95       	ror	r23
    1286:	67 95       	ror	r22
    1288:	b7 95       	ror	r27
    128a:	88 0f       	add	r24, r24
    128c:	91 1d       	adc	r25, r1
    128e:	96 95       	lsr	r25
    1290:	87 95       	ror	r24
    1292:	97 f9       	bld	r25, 7
    1294:	08 95       	ret

00001296 <__fp_nan>:
    1296:	9f ef       	ldi	r25, 0xFF	; 255
    1298:	80 ec       	ldi	r24, 0xC0	; 192
    129a:	08 95       	ret

0000129c <__fp_pscA>:
    129c:	00 24       	eor	r0, r0
    129e:	0a 94       	dec	r0
    12a0:	16 16       	cp	r1, r22
    12a2:	17 06       	cpc	r1, r23
    12a4:	18 06       	cpc	r1, r24
    12a6:	09 06       	cpc	r0, r25
    12a8:	08 95       	ret

000012aa <__fp_pscB>:
    12aa:	00 24       	eor	r0, r0
    12ac:	0a 94       	dec	r0
    12ae:	12 16       	cp	r1, r18
    12b0:	13 06       	cpc	r1, r19
    12b2:	14 06       	cpc	r1, r20
    12b4:	05 06       	cpc	r0, r21
    12b6:	08 95       	ret

000012b8 <__fp_round>:
    12b8:	09 2e       	mov	r0, r25
    12ba:	03 94       	inc	r0
    12bc:	00 0c       	add	r0, r0
    12be:	11 f4       	brne	.+4      	; 0x12c4 <__fp_round+0xc>
    12c0:	88 23       	and	r24, r24
    12c2:	52 f0       	brmi	.+20     	; 0x12d8 <__fp_round+0x20>
    12c4:	bb 0f       	add	r27, r27
    12c6:	40 f4       	brcc	.+16     	; 0x12d8 <__fp_round+0x20>
    12c8:	bf 2b       	or	r27, r31
    12ca:	11 f4       	brne	.+4      	; 0x12d0 <__fp_round+0x18>
    12cc:	60 ff       	sbrs	r22, 0
    12ce:	04 c0       	rjmp	.+8      	; 0x12d8 <__fp_round+0x20>
    12d0:	6f 5f       	subi	r22, 0xFF	; 255
    12d2:	7f 4f       	sbci	r23, 0xFF	; 255
    12d4:	8f 4f       	sbci	r24, 0xFF	; 255
    12d6:	9f 4f       	sbci	r25, 0xFF	; 255
    12d8:	08 95       	ret

000012da <__fp_split3>:
    12da:	57 fd       	sbrc	r21, 7
    12dc:	90 58       	subi	r25, 0x80	; 128
    12de:	44 0f       	add	r20, r20
    12e0:	55 1f       	adc	r21, r21
    12e2:	59 f0       	breq	.+22     	; 0x12fa <__fp_splitA+0x10>
    12e4:	5f 3f       	cpi	r21, 0xFF	; 255
    12e6:	71 f0       	breq	.+28     	; 0x1304 <__fp_splitA+0x1a>
    12e8:	47 95       	ror	r20

000012ea <__fp_splitA>:
    12ea:	88 0f       	add	r24, r24
    12ec:	97 fb       	bst	r25, 7
    12ee:	99 1f       	adc	r25, r25
    12f0:	61 f0       	breq	.+24     	; 0x130a <__fp_splitA+0x20>
    12f2:	9f 3f       	cpi	r25, 0xFF	; 255
    12f4:	79 f0       	breq	.+30     	; 0x1314 <__fp_splitA+0x2a>
    12f6:	87 95       	ror	r24
    12f8:	08 95       	ret
    12fa:	12 16       	cp	r1, r18
    12fc:	13 06       	cpc	r1, r19
    12fe:	14 06       	cpc	r1, r20
    1300:	55 1f       	adc	r21, r21
    1302:	f2 cf       	rjmp	.-28     	; 0x12e8 <__fp_split3+0xe>
    1304:	46 95       	lsr	r20
    1306:	f1 df       	rcall	.-30     	; 0x12ea <__fp_splitA>
    1308:	08 c0       	rjmp	.+16     	; 0x131a <__fp_splitA+0x30>
    130a:	16 16       	cp	r1, r22
    130c:	17 06       	cpc	r1, r23
    130e:	18 06       	cpc	r1, r24
    1310:	99 1f       	adc	r25, r25
    1312:	f1 cf       	rjmp	.-30     	; 0x12f6 <__fp_splitA+0xc>
    1314:	86 95       	lsr	r24
    1316:	71 05       	cpc	r23, r1
    1318:	61 05       	cpc	r22, r1
    131a:	08 94       	sec
    131c:	08 95       	ret

0000131e <__fp_zero>:
    131e:	e8 94       	clt

00001320 <__fp_szero>:
    1320:	bb 27       	eor	r27, r27
    1322:	66 27       	eor	r22, r22
    1324:	77 27       	eor	r23, r23
    1326:	cb 01       	movw	r24, r22
    1328:	97 f9       	bld	r25, 7
    132a:	08 95       	ret

0000132c <__gesf2>:
    132c:	7c df       	rcall	.-264    	; 0x1226 <__fp_cmp>
    132e:	08 f4       	brcc	.+2      	; 0x1332 <__gesf2+0x6>
    1330:	8f ef       	ldi	r24, 0xFF	; 255
    1332:	08 95       	ret

00001334 <__mulsf3>:
    1334:	0b d0       	rcall	.+22     	; 0x134c <__mulsf3x>
    1336:	c0 cf       	rjmp	.-128    	; 0x12b8 <__fp_round>
    1338:	b1 df       	rcall	.-158    	; 0x129c <__fp_pscA>
    133a:	28 f0       	brcs	.+10     	; 0x1346 <__mulsf3+0x12>
    133c:	b6 df       	rcall	.-148    	; 0x12aa <__fp_pscB>
    133e:	18 f0       	brcs	.+6      	; 0x1346 <__mulsf3+0x12>
    1340:	95 23       	and	r25, r21
    1342:	09 f0       	breq	.+2      	; 0x1346 <__mulsf3+0x12>
    1344:	94 cf       	rjmp	.-216    	; 0x126e <__fp_inf>
    1346:	a7 cf       	rjmp	.-178    	; 0x1296 <__fp_nan>
    1348:	11 24       	eor	r1, r1
    134a:	ea cf       	rjmp	.-44     	; 0x1320 <__fp_szero>

0000134c <__mulsf3x>:
    134c:	c6 df       	rcall	.-116    	; 0x12da <__fp_split3>
    134e:	a0 f3       	brcs	.-24     	; 0x1338 <__mulsf3+0x4>

00001350 <__mulsf3_pse>:
    1350:	95 9f       	mul	r25, r21
    1352:	d1 f3       	breq	.-12     	; 0x1348 <__mulsf3+0x14>
    1354:	95 0f       	add	r25, r21
    1356:	50 e0       	ldi	r21, 0x00	; 0
    1358:	55 1f       	adc	r21, r21
    135a:	62 9f       	mul	r22, r18
    135c:	f0 01       	movw	r30, r0
    135e:	72 9f       	mul	r23, r18
    1360:	bb 27       	eor	r27, r27
    1362:	f0 0d       	add	r31, r0
    1364:	b1 1d       	adc	r27, r1
    1366:	63 9f       	mul	r22, r19
    1368:	aa 27       	eor	r26, r26
    136a:	f0 0d       	add	r31, r0
    136c:	b1 1d       	adc	r27, r1
    136e:	aa 1f       	adc	r26, r26
    1370:	64 9f       	mul	r22, r20
    1372:	66 27       	eor	r22, r22
    1374:	b0 0d       	add	r27, r0
    1376:	a1 1d       	adc	r26, r1
    1378:	66 1f       	adc	r22, r22
    137a:	82 9f       	mul	r24, r18
    137c:	22 27       	eor	r18, r18
    137e:	b0 0d       	add	r27, r0
    1380:	a1 1d       	adc	r26, r1
    1382:	62 1f       	adc	r22, r18
    1384:	73 9f       	mul	r23, r19
    1386:	b0 0d       	add	r27, r0
    1388:	a1 1d       	adc	r26, r1
    138a:	62 1f       	adc	r22, r18
    138c:	83 9f       	mul	r24, r19
    138e:	a0 0d       	add	r26, r0
    1390:	61 1d       	adc	r22, r1
    1392:	22 1f       	adc	r18, r18
    1394:	74 9f       	mul	r23, r20
    1396:	33 27       	eor	r19, r19
    1398:	a0 0d       	add	r26, r0
    139a:	61 1d       	adc	r22, r1
    139c:	23 1f       	adc	r18, r19
    139e:	84 9f       	mul	r24, r20
    13a0:	60 0d       	add	r22, r0
    13a2:	21 1d       	adc	r18, r1
    13a4:	82 2f       	mov	r24, r18
    13a6:	76 2f       	mov	r23, r22
    13a8:	6a 2f       	mov	r22, r26
    13aa:	11 24       	eor	r1, r1
    13ac:	9f 57       	subi	r25, 0x7F	; 127
    13ae:	50 40       	sbci	r21, 0x00	; 0
    13b0:	8a f0       	brmi	.+34     	; 0x13d4 <__mulsf3_pse+0x84>
    13b2:	e1 f0       	breq	.+56     	; 0x13ec <__mulsf3_pse+0x9c>
    13b4:	88 23       	and	r24, r24
    13b6:	4a f0       	brmi	.+18     	; 0x13ca <__mulsf3_pse+0x7a>
    13b8:	ee 0f       	add	r30, r30
    13ba:	ff 1f       	adc	r31, r31
    13bc:	bb 1f       	adc	r27, r27
    13be:	66 1f       	adc	r22, r22
    13c0:	77 1f       	adc	r23, r23
    13c2:	88 1f       	adc	r24, r24
    13c4:	91 50       	subi	r25, 0x01	; 1
    13c6:	50 40       	sbci	r21, 0x00	; 0
    13c8:	a9 f7       	brne	.-22     	; 0x13b4 <__mulsf3_pse+0x64>
    13ca:	9e 3f       	cpi	r25, 0xFE	; 254
    13cc:	51 05       	cpc	r21, r1
    13ce:	70 f0       	brcs	.+28     	; 0x13ec <__mulsf3_pse+0x9c>
    13d0:	4e cf       	rjmp	.-356    	; 0x126e <__fp_inf>
    13d2:	a6 cf       	rjmp	.-180    	; 0x1320 <__fp_szero>
    13d4:	5f 3f       	cpi	r21, 0xFF	; 255
    13d6:	ec f3       	brlt	.-6      	; 0x13d2 <__mulsf3_pse+0x82>
    13d8:	98 3e       	cpi	r25, 0xE8	; 232
    13da:	dc f3       	brlt	.-10     	; 0x13d2 <__mulsf3_pse+0x82>
    13dc:	86 95       	lsr	r24
    13de:	77 95       	ror	r23
    13e0:	67 95       	ror	r22
    13e2:	b7 95       	ror	r27
    13e4:	f7 95       	ror	r31
    13e6:	e7 95       	ror	r30
    13e8:	9f 5f       	subi	r25, 0xFF	; 255
    13ea:	c1 f7       	brne	.-16     	; 0x13dc <__mulsf3_pse+0x8c>
    13ec:	fe 2b       	or	r31, r30
    13ee:	88 0f       	add	r24, r24
    13f0:	91 1d       	adc	r25, r1
    13f2:	96 95       	lsr	r25
    13f4:	87 95       	ror	r24
    13f6:	97 f9       	bld	r25, 7
    13f8:	08 95       	ret

000013fa <pow>:
    13fa:	fa 01       	movw	r30, r20
    13fc:	ee 0f       	add	r30, r30
    13fe:	ff 1f       	adc	r31, r31
    1400:	30 96       	adiw	r30, 0x00	; 0
    1402:	21 05       	cpc	r18, r1
    1404:	31 05       	cpc	r19, r1
    1406:	99 f1       	breq	.+102    	; 0x146e <pow+0x74>
    1408:	61 15       	cp	r22, r1
    140a:	71 05       	cpc	r23, r1
    140c:	61 f4       	brne	.+24     	; 0x1426 <pow+0x2c>
    140e:	80 38       	cpi	r24, 0x80	; 128
    1410:	bf e3       	ldi	r27, 0x3F	; 63
    1412:	9b 07       	cpc	r25, r27
    1414:	49 f1       	breq	.+82     	; 0x1468 <pow+0x6e>
    1416:	68 94       	set
    1418:	90 38       	cpi	r25, 0x80	; 128
    141a:	81 05       	cpc	r24, r1
    141c:	61 f0       	breq	.+24     	; 0x1436 <pow+0x3c>
    141e:	80 38       	cpi	r24, 0x80	; 128
    1420:	bf ef       	ldi	r27, 0xFF	; 255
    1422:	9b 07       	cpc	r25, r27
    1424:	41 f0       	breq	.+16     	; 0x1436 <pow+0x3c>
    1426:	99 23       	and	r25, r25
    1428:	42 f5       	brpl	.+80     	; 0x147a <pow+0x80>
    142a:	ff 3f       	cpi	r31, 0xFF	; 255
    142c:	e1 05       	cpc	r30, r1
    142e:	31 05       	cpc	r19, r1
    1430:	21 05       	cpc	r18, r1
    1432:	11 f1       	breq	.+68     	; 0x1478 <pow+0x7e>
    1434:	e8 94       	clt
    1436:	08 94       	sec
    1438:	e7 95       	ror	r30
    143a:	d9 01       	movw	r26, r18
    143c:	aa 23       	and	r26, r26
    143e:	29 f4       	brne	.+10     	; 0x144a <pow+0x50>
    1440:	ab 2f       	mov	r26, r27
    1442:	be 2f       	mov	r27, r30
    1444:	f8 5f       	subi	r31, 0xF8	; 248
    1446:	d0 f3       	brcs	.-12     	; 0x143c <pow+0x42>
    1448:	10 c0       	rjmp	.+32     	; 0x146a <pow+0x70>
    144a:	ff 5f       	subi	r31, 0xFF	; 255
    144c:	70 f4       	brcc	.+28     	; 0x146a <pow+0x70>
    144e:	a6 95       	lsr	r26
    1450:	e0 f7       	brcc	.-8      	; 0x144a <pow+0x50>
    1452:	f7 39       	cpi	r31, 0x97	; 151
    1454:	50 f0       	brcs	.+20     	; 0x146a <pow+0x70>
    1456:	19 f0       	breq	.+6      	; 0x145e <pow+0x64>
    1458:	ff 3a       	cpi	r31, 0xAF	; 175
    145a:	38 f4       	brcc	.+14     	; 0x146a <pow+0x70>
    145c:	9f 77       	andi	r25, 0x7F	; 127
    145e:	9f 93       	push	r25
    1460:	0c d0       	rcall	.+24     	; 0x147a <pow+0x80>
    1462:	0f 90       	pop	r0
    1464:	07 fc       	sbrc	r0, 7
    1466:	90 58       	subi	r25, 0x80	; 128
    1468:	08 95       	ret
    146a:	3e f0       	brts	.+14     	; 0x147a <pow+0x80>
    146c:	14 cf       	rjmp	.-472    	; 0x1296 <__fp_nan>
    146e:	60 e0       	ldi	r22, 0x00	; 0
    1470:	70 e0       	ldi	r23, 0x00	; 0
    1472:	80 e8       	ldi	r24, 0x80	; 128
    1474:	9f e3       	ldi	r25, 0x3F	; 63
    1476:	08 95       	ret
    1478:	4f e7       	ldi	r20, 0x7F	; 127
    147a:	9f 77       	andi	r25, 0x7F	; 127
    147c:	5f 93       	push	r21
    147e:	4f 93       	push	r20
    1480:	3f 93       	push	r19
    1482:	2f 93       	push	r18
    1484:	9e d0       	rcall	.+316    	; 0x15c2 <log>
    1486:	2f 91       	pop	r18
    1488:	3f 91       	pop	r19
    148a:	4f 91       	pop	r20
    148c:	5f 91       	pop	r21
    148e:	52 df       	rcall	.-348    	; 0x1334 <__mulsf3>
    1490:	05 c0       	rjmp	.+10     	; 0x149c <exp>
    1492:	19 f4       	brne	.+6      	; 0x149a <pow+0xa0>
    1494:	0e f0       	brts	.+2      	; 0x1498 <pow+0x9e>
    1496:	eb ce       	rjmp	.-554    	; 0x126e <__fp_inf>
    1498:	42 cf       	rjmp	.-380    	; 0x131e <__fp_zero>
    149a:	fd ce       	rjmp	.-518    	; 0x1296 <__fp_nan>

0000149c <exp>:
    149c:	26 df       	rcall	.-436    	; 0x12ea <__fp_splitA>
    149e:	c8 f3       	brcs	.-14     	; 0x1492 <pow+0x98>
    14a0:	96 38       	cpi	r25, 0x86	; 134
    14a2:	c0 f7       	brcc	.-16     	; 0x1494 <pow+0x9a>
    14a4:	07 f8       	bld	r0, 7
    14a6:	0f 92       	push	r0
    14a8:	e8 94       	clt
    14aa:	2b e3       	ldi	r18, 0x3B	; 59
    14ac:	3a ea       	ldi	r19, 0xAA	; 170
    14ae:	48 eb       	ldi	r20, 0xB8	; 184
    14b0:	5f e7       	ldi	r21, 0x7F	; 127
    14b2:	4e df       	rcall	.-356    	; 0x1350 <__mulsf3_pse>
    14b4:	0f 92       	push	r0
    14b6:	0f 92       	push	r0
    14b8:	0f 92       	push	r0
    14ba:	4d b7       	in	r20, 0x3d	; 61
    14bc:	5e b7       	in	r21, 0x3e	; 62
    14be:	0f 92       	push	r0
    14c0:	c0 d0       	rcall	.+384    	; 0x1642 <modf>
    14c2:	e8 e6       	ldi	r30, 0x68	; 104
    14c4:	f0 e0       	ldi	r31, 0x00	; 0
    14c6:	16 d0       	rcall	.+44     	; 0x14f4 <__fp_powser>
    14c8:	4f 91       	pop	r20
    14ca:	5f 91       	pop	r21
    14cc:	ef 91       	pop	r30
    14ce:	ff 91       	pop	r31
    14d0:	e5 95       	asr	r30
    14d2:	ee 1f       	adc	r30, r30
    14d4:	ff 1f       	adc	r31, r31
    14d6:	49 f0       	breq	.+18     	; 0x14ea <exp+0x4e>
    14d8:	fe 57       	subi	r31, 0x7E	; 126
    14da:	e0 68       	ori	r30, 0x80	; 128
    14dc:	44 27       	eor	r20, r20
    14de:	ee 0f       	add	r30, r30
    14e0:	44 1f       	adc	r20, r20
    14e2:	fa 95       	dec	r31
    14e4:	e1 f7       	brne	.-8      	; 0x14de <exp+0x42>
    14e6:	41 95       	neg	r20
    14e8:	55 0b       	sbc	r21, r21
    14ea:	32 d0       	rcall	.+100    	; 0x1550 <ldexp>
    14ec:	0f 90       	pop	r0
    14ee:	07 fe       	sbrs	r0, 7
    14f0:	26 c0       	rjmp	.+76     	; 0x153e <inverse>
    14f2:	08 95       	ret

000014f4 <__fp_powser>:
    14f4:	df 93       	push	r29
    14f6:	cf 93       	push	r28
    14f8:	1f 93       	push	r17
    14fa:	0f 93       	push	r16
    14fc:	ff 92       	push	r15
    14fe:	ef 92       	push	r14
    1500:	df 92       	push	r13
    1502:	7b 01       	movw	r14, r22
    1504:	8c 01       	movw	r16, r24
    1506:	68 94       	set
    1508:	05 c0       	rjmp	.+10     	; 0x1514 <__fp_powser+0x20>
    150a:	da 2e       	mov	r13, r26
    150c:	ef 01       	movw	r28, r30
    150e:	1e df       	rcall	.-452    	; 0x134c <__mulsf3x>
    1510:	fe 01       	movw	r30, r28
    1512:	e8 94       	clt
    1514:	a5 91       	lpm	r26, Z+
    1516:	25 91       	lpm	r18, Z+
    1518:	35 91       	lpm	r19, Z+
    151a:	45 91       	lpm	r20, Z+
    151c:	55 91       	lpm	r21, Z+
    151e:	ae f3       	brts	.-22     	; 0x150a <__fp_powser+0x16>
    1520:	ef 01       	movw	r28, r30
    1522:	06 dd       	rcall	.-1524   	; 0xf30 <__addsf3x>
    1524:	fe 01       	movw	r30, r28
    1526:	97 01       	movw	r18, r14
    1528:	a8 01       	movw	r20, r16
    152a:	da 94       	dec	r13
    152c:	79 f7       	brne	.-34     	; 0x150c <__fp_powser+0x18>
    152e:	df 90       	pop	r13
    1530:	ef 90       	pop	r14
    1532:	ff 90       	pop	r15
    1534:	0f 91       	pop	r16
    1536:	1f 91       	pop	r17
    1538:	cf 91       	pop	r28
    153a:	df 91       	pop	r29
    153c:	08 95       	ret

0000153e <inverse>:
    153e:	9b 01       	movw	r18, r22
    1540:	ac 01       	movw	r20, r24
    1542:	60 e0       	ldi	r22, 0x00	; 0
    1544:	70 e0       	ldi	r23, 0x00	; 0
    1546:	80 e8       	ldi	r24, 0x80	; 128
    1548:	9f e3       	ldi	r25, 0x3F	; 63
    154a:	49 cd       	rjmp	.-1390   	; 0xfde <__divsf3>
    154c:	90 ce       	rjmp	.-736    	; 0x126e <__fp_inf>
    154e:	95 ce       	rjmp	.-726    	; 0x127a <__fp_mpack>

00001550 <ldexp>:
    1550:	cc de       	rcall	.-616    	; 0x12ea <__fp_splitA>
    1552:	e8 f3       	brcs	.-6      	; 0x154e <inverse+0x10>
    1554:	99 23       	and	r25, r25
    1556:	d9 f3       	breq	.-10     	; 0x154e <inverse+0x10>
    1558:	94 0f       	add	r25, r20
    155a:	51 1d       	adc	r21, r1
    155c:	bb f3       	brvs	.-18     	; 0x154c <inverse+0xe>
    155e:	91 50       	subi	r25, 0x01	; 1
    1560:	50 40       	sbci	r21, 0x00	; 0
    1562:	94 f0       	brlt	.+36     	; 0x1588 <ldexp+0x38>
    1564:	59 f0       	breq	.+22     	; 0x157c <ldexp+0x2c>
    1566:	88 23       	and	r24, r24
    1568:	32 f0       	brmi	.+12     	; 0x1576 <ldexp+0x26>
    156a:	66 0f       	add	r22, r22
    156c:	77 1f       	adc	r23, r23
    156e:	88 1f       	adc	r24, r24
    1570:	91 50       	subi	r25, 0x01	; 1
    1572:	50 40       	sbci	r21, 0x00	; 0
    1574:	c1 f7       	brne	.-16     	; 0x1566 <ldexp+0x16>
    1576:	9e 3f       	cpi	r25, 0xFE	; 254
    1578:	51 05       	cpc	r21, r1
    157a:	44 f7       	brge	.-48     	; 0x154c <inverse+0xe>
    157c:	88 0f       	add	r24, r24
    157e:	91 1d       	adc	r25, r1
    1580:	96 95       	lsr	r25
    1582:	87 95       	ror	r24
    1584:	97 f9       	bld	r25, 7
    1586:	08 95       	ret
    1588:	5f 3f       	cpi	r21, 0xFF	; 255
    158a:	ac f0       	brlt	.+42     	; 0x15b6 <ldexp+0x66>
    158c:	98 3e       	cpi	r25, 0xE8	; 232
    158e:	9c f0       	brlt	.+38     	; 0x15b6 <ldexp+0x66>
    1590:	bb 27       	eor	r27, r27
    1592:	86 95       	lsr	r24
    1594:	77 95       	ror	r23
    1596:	67 95       	ror	r22
    1598:	b7 95       	ror	r27
    159a:	08 f4       	brcc	.+2      	; 0x159e <ldexp+0x4e>
    159c:	b1 60       	ori	r27, 0x01	; 1
    159e:	93 95       	inc	r25
    15a0:	c1 f7       	brne	.-16     	; 0x1592 <ldexp+0x42>
    15a2:	bb 0f       	add	r27, r27
    15a4:	58 f7       	brcc	.-42     	; 0x157c <ldexp+0x2c>
    15a6:	11 f4       	brne	.+4      	; 0x15ac <ldexp+0x5c>
    15a8:	60 ff       	sbrs	r22, 0
    15aa:	e8 cf       	rjmp	.-48     	; 0x157c <ldexp+0x2c>
    15ac:	6f 5f       	subi	r22, 0xFF	; 255
    15ae:	7f 4f       	sbci	r23, 0xFF	; 255
    15b0:	8f 4f       	sbci	r24, 0xFF	; 255
    15b2:	9f 4f       	sbci	r25, 0xFF	; 255
    15b4:	e3 cf       	rjmp	.-58     	; 0x157c <ldexp+0x2c>
    15b6:	b4 ce       	rjmp	.-664    	; 0x1320 <__fp_szero>
    15b8:	0e f0       	brts	.+2      	; 0x15bc <ldexp+0x6c>
    15ba:	5f ce       	rjmp	.-834    	; 0x127a <__fp_mpack>
    15bc:	6c ce       	rjmp	.-808    	; 0x1296 <__fp_nan>
    15be:	68 94       	set
    15c0:	56 ce       	rjmp	.-852    	; 0x126e <__fp_inf>

000015c2 <log>:
    15c2:	93 de       	rcall	.-730    	; 0x12ea <__fp_splitA>
    15c4:	c8 f3       	brcs	.-14     	; 0x15b8 <ldexp+0x68>
    15c6:	99 23       	and	r25, r25
    15c8:	d1 f3       	breq	.-12     	; 0x15be <ldexp+0x6e>
    15ca:	c6 f3       	brts	.-16     	; 0x15bc <ldexp+0x6c>
    15cc:	df 93       	push	r29
    15ce:	cf 93       	push	r28
    15d0:	1f 93       	push	r17
    15d2:	0f 93       	push	r16
    15d4:	ff 92       	push	r15
    15d6:	c9 2f       	mov	r28, r25
    15d8:	dd 27       	eor	r29, r29
    15da:	88 23       	and	r24, r24
    15dc:	2a f0       	brmi	.+10     	; 0x15e8 <log+0x26>
    15de:	21 97       	sbiw	r28, 0x01	; 1
    15e0:	66 0f       	add	r22, r22
    15e2:	77 1f       	adc	r23, r23
    15e4:	88 1f       	adc	r24, r24
    15e6:	da f7       	brpl	.-10     	; 0x15de <log+0x1c>
    15e8:	20 e0       	ldi	r18, 0x00	; 0
    15ea:	30 e0       	ldi	r19, 0x00	; 0
    15ec:	40 e8       	ldi	r20, 0x80	; 128
    15ee:	5f eb       	ldi	r21, 0xBF	; 191
    15f0:	9f e3       	ldi	r25, 0x3F	; 63
    15f2:	88 39       	cpi	r24, 0x98	; 152
    15f4:	20 f0       	brcs	.+8      	; 0x15fe <log+0x3c>
    15f6:	80 3e       	cpi	r24, 0xE0	; 224
    15f8:	30 f0       	brcs	.+12     	; 0x1606 <log+0x44>
    15fa:	21 96       	adiw	r28, 0x01	; 1
    15fc:	8f 77       	andi	r24, 0x7F	; 127
    15fe:	87 dc       	rcall	.-1778   	; 0xf0e <__addsf3>
    1600:	e0 e9       	ldi	r30, 0x90	; 144
    1602:	f0 e0       	ldi	r31, 0x00	; 0
    1604:	03 c0       	rjmp	.+6      	; 0x160c <log+0x4a>
    1606:	83 dc       	rcall	.-1786   	; 0xf0e <__addsf3>
    1608:	ed eb       	ldi	r30, 0xBD	; 189
    160a:	f0 e0       	ldi	r31, 0x00	; 0
    160c:	73 df       	rcall	.-282    	; 0x14f4 <__fp_powser>
    160e:	8b 01       	movw	r16, r22
    1610:	be 01       	movw	r22, r28
    1612:	ec 01       	movw	r28, r24
    1614:	fb 2e       	mov	r15, r27
    1616:	6f 57       	subi	r22, 0x7F	; 127
    1618:	71 09       	sbc	r23, r1
    161a:	75 95       	asr	r23
    161c:	77 1f       	adc	r23, r23
    161e:	88 0b       	sbc	r24, r24
    1620:	99 0b       	sbc	r25, r25
    1622:	78 dd       	rcall	.-1296   	; 0x1114 <__floatsisf>
    1624:	28 e1       	ldi	r18, 0x18	; 24
    1626:	32 e7       	ldi	r19, 0x72	; 114
    1628:	41 e3       	ldi	r20, 0x31	; 49
    162a:	5f e3       	ldi	r21, 0x3F	; 63
    162c:	8f de       	rcall	.-738    	; 0x134c <__mulsf3x>
    162e:	af 2d       	mov	r26, r15
    1630:	98 01       	movw	r18, r16
    1632:	ae 01       	movw	r20, r28
    1634:	ff 90       	pop	r15
    1636:	0f 91       	pop	r16
    1638:	1f 91       	pop	r17
    163a:	cf 91       	pop	r28
    163c:	df 91       	pop	r29
    163e:	78 dc       	rcall	.-1808   	; 0xf30 <__addsf3x>
    1640:	3b ce       	rjmp	.-906    	; 0x12b8 <__fp_round>

00001642 <modf>:
    1642:	fa 01       	movw	r30, r20
    1644:	dc 01       	movw	r26, r24
    1646:	aa 0f       	add	r26, r26
    1648:	bb 1f       	adc	r27, r27
    164a:	9b 01       	movw	r18, r22
    164c:	ac 01       	movw	r20, r24
    164e:	bf 57       	subi	r27, 0x7F	; 127
    1650:	28 f4       	brcc	.+10     	; 0x165c <modf+0x1a>
    1652:	22 27       	eor	r18, r18
    1654:	33 27       	eor	r19, r19
    1656:	44 27       	eor	r20, r20
    1658:	50 78       	andi	r21, 0x80	; 128
    165a:	1f c0       	rjmp	.+62     	; 0x169a <modf+0x58>
    165c:	b7 51       	subi	r27, 0x17	; 23
    165e:	88 f4       	brcc	.+34     	; 0x1682 <modf+0x40>
    1660:	ab 2f       	mov	r26, r27
    1662:	00 24       	eor	r0, r0
    1664:	46 95       	lsr	r20
    1666:	37 95       	ror	r19
    1668:	27 95       	ror	r18
    166a:	01 1c       	adc	r0, r1
    166c:	a3 95       	inc	r26
    166e:	d2 f3       	brmi	.-12     	; 0x1664 <modf+0x22>
    1670:	00 20       	and	r0, r0
    1672:	69 f0       	breq	.+26     	; 0x168e <modf+0x4c>
    1674:	22 0f       	add	r18, r18
    1676:	33 1f       	adc	r19, r19
    1678:	44 1f       	adc	r20, r20
    167a:	b3 95       	inc	r27
    167c:	da f3       	brmi	.-10     	; 0x1674 <modf+0x32>
    167e:	0d d0       	rcall	.+26     	; 0x169a <modf+0x58>
    1680:	45 cc       	rjmp	.-1910   	; 0xf0c <__subsf3>
    1682:	61 30       	cpi	r22, 0x01	; 1
    1684:	71 05       	cpc	r23, r1
    1686:	a0 e8       	ldi	r26, 0x80	; 128
    1688:	8a 07       	cpc	r24, r26
    168a:	b9 46       	sbci	r27, 0x69	; 105
    168c:	30 f4       	brcc	.+12     	; 0x169a <modf+0x58>
    168e:	9b 01       	movw	r18, r22
    1690:	ac 01       	movw	r20, r24
    1692:	66 27       	eor	r22, r22
    1694:	77 27       	eor	r23, r23
    1696:	88 27       	eor	r24, r24
    1698:	90 78       	andi	r25, 0x80	; 128
    169a:	30 96       	adiw	r30, 0x00	; 0
    169c:	21 f0       	breq	.+8      	; 0x16a6 <modf+0x64>
    169e:	20 83       	st	Z, r18
    16a0:	31 83       	std	Z+1, r19	; 0x01
    16a2:	42 83       	std	Z+2, r20	; 0x02
    16a4:	53 83       	std	Z+3, r21	; 0x03
    16a6:	08 95       	ret

000016a8 <__muluhisi3>:
    16a8:	e5 d0       	rcall	.+458    	; 0x1874 <__umulhisi3>
    16aa:	a5 9f       	mul	r26, r21
    16ac:	90 0d       	add	r25, r0
    16ae:	b4 9f       	mul	r27, r20
    16b0:	90 0d       	add	r25, r0
    16b2:	a4 9f       	mul	r26, r20
    16b4:	80 0d       	add	r24, r0
    16b6:	91 1d       	adc	r25, r1
    16b8:	11 24       	eor	r1, r1
    16ba:	08 95       	ret

000016bc <__moddi3>:
    16bc:	68 94       	set
    16be:	01 c0       	rjmp	.+2      	; 0x16c2 <__divdi3_moddi3>

000016c0 <__divdi3>:
    16c0:	e8 94       	clt

000016c2 <__divdi3_moddi3>:
    16c2:	f9 2f       	mov	r31, r25
    16c4:	f1 2b       	or	r31, r17
    16c6:	0a f0       	brmi	.+2      	; 0x16ca <__divdi3_moddi3+0x8>
    16c8:	27 c0       	rjmp	.+78     	; 0x1718 <__udivdi3_umoddi3>
    16ca:	a0 e0       	ldi	r26, 0x00	; 0
    16cc:	b0 e0       	ldi	r27, 0x00	; 0
    16ce:	ea e6       	ldi	r30, 0x6A	; 106
    16d0:	fb e0       	ldi	r31, 0x0B	; 11
    16d2:	93 c0       	rjmp	.+294    	; 0x17fa <__prologue_saves__+0xc>
    16d4:	09 2e       	mov	r0, r25
    16d6:	05 94       	asr	r0
    16d8:	1a f4       	brpl	.+6      	; 0x16e0 <__divdi3_moddi3+0x1e>
    16da:	79 d0       	rcall	.+242    	; 0x17ce <__negdi2>
    16dc:	11 23       	and	r17, r17
    16de:	92 f4       	brpl	.+36     	; 0x1704 <__divdi3_moddi3+0x42>
    16e0:	f0 e8       	ldi	r31, 0x80	; 128
    16e2:	0f 26       	eor	r0, r31
    16e4:	ff ef       	ldi	r31, 0xFF	; 255
    16e6:	e0 94       	com	r14
    16e8:	f0 94       	com	r15
    16ea:	00 95       	com	r16
    16ec:	10 95       	com	r17
    16ee:	b0 94       	com	r11
    16f0:	c0 94       	com	r12
    16f2:	d0 94       	com	r13
    16f4:	a1 94       	neg	r10
    16f6:	bf 0a       	sbc	r11, r31
    16f8:	cf 0a       	sbc	r12, r31
    16fa:	df 0a       	sbc	r13, r31
    16fc:	ef 0a       	sbc	r14, r31
    16fe:	ff 0a       	sbc	r15, r31
    1700:	0f 0b       	sbc	r16, r31
    1702:	1f 0b       	sbc	r17, r31
    1704:	13 d0       	rcall	.+38     	; 0x172c <__udivmod64>
    1706:	07 fc       	sbrc	r0, 7
    1708:	62 d0       	rcall	.+196    	; 0x17ce <__negdi2>
    170a:	cd b7       	in	r28, 0x3d	; 61
    170c:	de b7       	in	r29, 0x3e	; 62
    170e:	ec e0       	ldi	r30, 0x0C	; 12
    1710:	90 c0       	rjmp	.+288    	; 0x1832 <__epilogue_restores__+0xc>

00001712 <__umoddi3>:
    1712:	68 94       	set
    1714:	01 c0       	rjmp	.+2      	; 0x1718 <__udivdi3_umoddi3>

00001716 <__udivdi3>:
    1716:	e8 94       	clt

00001718 <__udivdi3_umoddi3>:
    1718:	8f 92       	push	r8
    171a:	9f 92       	push	r9
    171c:	cf 93       	push	r28
    171e:	df 93       	push	r29
    1720:	05 d0       	rcall	.+10     	; 0x172c <__udivmod64>
    1722:	df 91       	pop	r29
    1724:	cf 91       	pop	r28
    1726:	9f 90       	pop	r9
    1728:	8f 90       	pop	r8
    172a:	08 95       	ret

0000172c <__udivmod64>:
    172c:	88 24       	eor	r8, r8
    172e:	99 24       	eor	r9, r9
    1730:	f4 01       	movw	r30, r8
    1732:	e4 01       	movw	r28, r8
    1734:	b0 e4       	ldi	r27, 0x40	; 64
    1736:	9f 93       	push	r25
    1738:	aa 27       	eor	r26, r26
    173a:	9a 15       	cp	r25, r10
    173c:	8b 04       	cpc	r8, r11
    173e:	9c 04       	cpc	r9, r12
    1740:	ed 05       	cpc	r30, r13
    1742:	fe 05       	cpc	r31, r14
    1744:	cf 05       	cpc	r28, r15
    1746:	d0 07       	cpc	r29, r16
    1748:	a1 07       	cpc	r26, r17
    174a:	98 f4       	brcc	.+38     	; 0x1772 <__udivmod64+0x46>
    174c:	ad 2f       	mov	r26, r29
    174e:	dc 2f       	mov	r29, r28
    1750:	cf 2f       	mov	r28, r31
    1752:	fe 2f       	mov	r31, r30
    1754:	e9 2d       	mov	r30, r9
    1756:	98 2c       	mov	r9, r8
    1758:	89 2e       	mov	r8, r25
    175a:	98 2f       	mov	r25, r24
    175c:	87 2f       	mov	r24, r23
    175e:	76 2f       	mov	r23, r22
    1760:	65 2f       	mov	r22, r21
    1762:	54 2f       	mov	r21, r20
    1764:	43 2f       	mov	r20, r19
    1766:	32 2f       	mov	r19, r18
    1768:	22 27       	eor	r18, r18
    176a:	b8 50       	subi	r27, 0x08	; 8
    176c:	31 f7       	brne	.-52     	; 0x173a <__udivmod64+0xe>
    176e:	bf 91       	pop	r27
    1770:	27 c0       	rjmp	.+78     	; 0x17c0 <__udivmod64+0x94>
    1772:	1b 2e       	mov	r1, r27
    1774:	bf 91       	pop	r27
    1776:	bb 27       	eor	r27, r27
    1778:	22 0f       	add	r18, r18
    177a:	33 1f       	adc	r19, r19
    177c:	44 1f       	adc	r20, r20
    177e:	55 1f       	adc	r21, r21
    1780:	66 1f       	adc	r22, r22
    1782:	77 1f       	adc	r23, r23
    1784:	88 1f       	adc	r24, r24
    1786:	99 1f       	adc	r25, r25
    1788:	88 1c       	adc	r8, r8
    178a:	99 1c       	adc	r9, r9
    178c:	ee 1f       	adc	r30, r30
    178e:	ff 1f       	adc	r31, r31
    1790:	cc 1f       	adc	r28, r28
    1792:	dd 1f       	adc	r29, r29
    1794:	aa 1f       	adc	r26, r26
    1796:	bb 1f       	adc	r27, r27
    1798:	8a 14       	cp	r8, r10
    179a:	9b 04       	cpc	r9, r11
    179c:	ec 05       	cpc	r30, r12
    179e:	fd 05       	cpc	r31, r13
    17a0:	ce 05       	cpc	r28, r14
    17a2:	df 05       	cpc	r29, r15
    17a4:	a0 07       	cpc	r26, r16
    17a6:	b1 07       	cpc	r27, r17
    17a8:	48 f0       	brcs	.+18     	; 0x17bc <__udivmod64+0x90>
    17aa:	8a 18       	sub	r8, r10
    17ac:	9b 08       	sbc	r9, r11
    17ae:	ec 09       	sbc	r30, r12
    17b0:	fd 09       	sbc	r31, r13
    17b2:	ce 09       	sbc	r28, r14
    17b4:	df 09       	sbc	r29, r15
    17b6:	a0 0b       	sbc	r26, r16
    17b8:	b1 0b       	sbc	r27, r17
    17ba:	21 60       	ori	r18, 0x01	; 1
    17bc:	1a 94       	dec	r1
    17be:	e1 f6       	brne	.-72     	; 0x1778 <__udivmod64+0x4c>
    17c0:	2e f4       	brtc	.+10     	; 0x17cc <__udivmod64+0xa0>
    17c2:	94 01       	movw	r18, r8
    17c4:	af 01       	movw	r20, r30
    17c6:	be 01       	movw	r22, r28
    17c8:	cd 01       	movw	r24, r26
    17ca:	00 0c       	add	r0, r0
    17cc:	08 95       	ret

000017ce <__negdi2>:
    17ce:	60 95       	com	r22
    17d0:	70 95       	com	r23
    17d2:	80 95       	com	r24
    17d4:	90 95       	com	r25
    17d6:	30 95       	com	r19
    17d8:	40 95       	com	r20
    17da:	50 95       	com	r21
    17dc:	21 95       	neg	r18
    17de:	3f 4f       	sbci	r19, 0xFF	; 255
    17e0:	4f 4f       	sbci	r20, 0xFF	; 255
    17e2:	5f 4f       	sbci	r21, 0xFF	; 255
    17e4:	6f 4f       	sbci	r22, 0xFF	; 255
    17e6:	7f 4f       	sbci	r23, 0xFF	; 255
    17e8:	8f 4f       	sbci	r24, 0xFF	; 255
    17ea:	9f 4f       	sbci	r25, 0xFF	; 255
    17ec:	08 95       	ret

000017ee <__prologue_saves__>:
    17ee:	2f 92       	push	r2
    17f0:	3f 92       	push	r3
    17f2:	4f 92       	push	r4
    17f4:	5f 92       	push	r5
    17f6:	6f 92       	push	r6
    17f8:	7f 92       	push	r7
    17fa:	8f 92       	push	r8
    17fc:	9f 92       	push	r9
    17fe:	af 92       	push	r10
    1800:	bf 92       	push	r11
    1802:	cf 92       	push	r12
    1804:	df 92       	push	r13
    1806:	ef 92       	push	r14
    1808:	ff 92       	push	r15
    180a:	0f 93       	push	r16
    180c:	1f 93       	push	r17
    180e:	cf 93       	push	r28
    1810:	df 93       	push	r29
    1812:	cd b7       	in	r28, 0x3d	; 61
    1814:	de b7       	in	r29, 0x3e	; 62
    1816:	ca 1b       	sub	r28, r26
    1818:	db 0b       	sbc	r29, r27
    181a:	0f b6       	in	r0, 0x3f	; 63
    181c:	f8 94       	cli
    181e:	de bf       	out	0x3e, r29	; 62
    1820:	0f be       	out	0x3f, r0	; 63
    1822:	cd bf       	out	0x3d, r28	; 61
    1824:	09 94       	ijmp

00001826 <__epilogue_restores__>:
    1826:	2a 88       	ldd	r2, Y+18	; 0x12
    1828:	39 88       	ldd	r3, Y+17	; 0x11
    182a:	48 88       	ldd	r4, Y+16	; 0x10
    182c:	5f 84       	ldd	r5, Y+15	; 0x0f
    182e:	6e 84       	ldd	r6, Y+14	; 0x0e
    1830:	7d 84       	ldd	r7, Y+13	; 0x0d
    1832:	8c 84       	ldd	r8, Y+12	; 0x0c
    1834:	9b 84       	ldd	r9, Y+11	; 0x0b
    1836:	aa 84       	ldd	r10, Y+10	; 0x0a
    1838:	b9 84       	ldd	r11, Y+9	; 0x09
    183a:	c8 84       	ldd	r12, Y+8	; 0x08
    183c:	df 80       	ldd	r13, Y+7	; 0x07
    183e:	ee 80       	ldd	r14, Y+6	; 0x06
    1840:	fd 80       	ldd	r15, Y+5	; 0x05
    1842:	0c 81       	ldd	r16, Y+4	; 0x04
    1844:	1b 81       	ldd	r17, Y+3	; 0x03
    1846:	aa 81       	ldd	r26, Y+2	; 0x02
    1848:	b9 81       	ldd	r27, Y+1	; 0x01
    184a:	ce 0f       	add	r28, r30
    184c:	d1 1d       	adc	r29, r1
    184e:	0f b6       	in	r0, 0x3f	; 63
    1850:	f8 94       	cli
    1852:	de bf       	out	0x3e, r29	; 62
    1854:	0f be       	out	0x3f, r0	; 63
    1856:	cd bf       	out	0x3d, r28	; 61
    1858:	ed 01       	movw	r28, r26
    185a:	08 95       	ret

0000185c <__cmpdi2_s8>:
    185c:	00 24       	eor	r0, r0
    185e:	a7 fd       	sbrc	r26, 7
    1860:	00 94       	com	r0
    1862:	2a 17       	cp	r18, r26
    1864:	30 05       	cpc	r19, r0
    1866:	40 05       	cpc	r20, r0
    1868:	50 05       	cpc	r21, r0
    186a:	60 05       	cpc	r22, r0
    186c:	70 05       	cpc	r23, r0
    186e:	80 05       	cpc	r24, r0
    1870:	90 05       	cpc	r25, r0
    1872:	08 95       	ret

00001874 <__umulhisi3>:
    1874:	a2 9f       	mul	r26, r18
    1876:	b0 01       	movw	r22, r0
    1878:	b3 9f       	mul	r27, r19
    187a:	c0 01       	movw	r24, r0
    187c:	a3 9f       	mul	r26, r19
    187e:	70 0d       	add	r23, r0
    1880:	81 1d       	adc	r24, r1
    1882:	11 24       	eor	r1, r1
    1884:	91 1d       	adc	r25, r1
    1886:	b2 9f       	mul	r27, r18
    1888:	70 0d       	add	r23, r0
    188a:	81 1d       	adc	r24, r1
    188c:	11 24       	eor	r1, r1
    188e:	91 1d       	adc	r25, r1
    1890:	08 95       	ret

00001892 <atof>:
    1892:	66 27       	eor	r22, r22
    1894:	77 27       	eor	r23, r23
    1896:	00 c0       	rjmp	.+0      	; 0x1898 <strtod>

00001898 <strtod>:
    1898:	a0 e0       	ldi	r26, 0x00	; 0
    189a:	b0 e0       	ldi	r27, 0x00	; 0
    189c:	e1 e5       	ldi	r30, 0x51	; 81
    189e:	fc e0       	ldi	r31, 0x0C	; 12
    18a0:	ac cf       	rjmp	.-168    	; 0x17fa <__prologue_saves__+0xc>
    18a2:	ec 01       	movw	r28, r24
    18a4:	6b 01       	movw	r12, r22
    18a6:	61 15       	cp	r22, r1
    18a8:	71 05       	cpc	r23, r1
    18aa:	19 f0       	breq	.+6      	; 0x18b2 <strtod+0x1a>
    18ac:	fb 01       	movw	r30, r22
    18ae:	91 83       	std	Z+1, r25	; 0x01
    18b0:	80 83       	st	Z, r24
    18b2:	7e 01       	movw	r14, r28
    18b4:	ff ef       	ldi	r31, 0xFF	; 255
    18b6:	ef 1a       	sub	r14, r31
    18b8:	ff 0a       	sbc	r15, r31
    18ba:	08 81       	ld	r16, Y
    18bc:	80 2f       	mov	r24, r16
    18be:	90 e0       	ldi	r25, 0x00	; 0
    18c0:	2e d1       	rcall	.+604    	; 0x1b1e <isspace>
    18c2:	89 2b       	or	r24, r25
    18c4:	11 f0       	breq	.+4      	; 0x18ca <strtod+0x32>
    18c6:	e7 01       	movw	r28, r14
    18c8:	f4 cf       	rjmp	.-24     	; 0x18b2 <strtod+0x1a>
    18ca:	0d 32       	cpi	r16, 0x2D	; 45
    18cc:	39 f4       	brne	.+14     	; 0x18dc <strtod+0x44>
    18ce:	7e 01       	movw	r14, r28
    18d0:	82 e0       	ldi	r24, 0x02	; 2
    18d2:	e8 0e       	add	r14, r24
    18d4:	f1 1c       	adc	r15, r1
    18d6:	09 81       	ldd	r16, Y+1	; 0x01
    18d8:	11 e0       	ldi	r17, 0x01	; 1
    18da:	08 c0       	rjmp	.+16     	; 0x18ec <strtod+0x54>
    18dc:	0b 32       	cpi	r16, 0x2B	; 43
    18de:	29 f4       	brne	.+10     	; 0x18ea <strtod+0x52>
    18e0:	7e 01       	movw	r14, r28
    18e2:	92 e0       	ldi	r25, 0x02	; 2
    18e4:	e9 0e       	add	r14, r25
    18e6:	f1 1c       	adc	r15, r1
    18e8:	09 81       	ldd	r16, Y+1	; 0x01
    18ea:	10 e0       	ldi	r17, 0x00	; 0
    18ec:	e7 01       	movw	r28, r14
    18ee:	21 97       	sbiw	r28, 0x01	; 1
    18f0:	43 e0       	ldi	r20, 0x03	; 3
    18f2:	50 e0       	ldi	r21, 0x00	; 0
    18f4:	62 ef       	ldi	r22, 0xF2	; 242
    18f6:	70 e0       	ldi	r23, 0x00	; 0
    18f8:	ce 01       	movw	r24, r28
    18fa:	19 d1       	rcall	.+562    	; 0x1b2e <strncasecmp_P>
    18fc:	89 2b       	or	r24, r25
    18fe:	b9 f4       	brne	.+46     	; 0x192e <strtod+0x96>
    1900:	23 96       	adiw	r28, 0x03	; 3
    1902:	45 e0       	ldi	r20, 0x05	; 5
    1904:	50 e0       	ldi	r21, 0x00	; 0
    1906:	6d ee       	ldi	r22, 0xED	; 237
    1908:	70 e0       	ldi	r23, 0x00	; 0
    190a:	ce 01       	movw	r24, r28
    190c:	10 d1       	rcall	.+544    	; 0x1b2e <strncasecmp_P>
    190e:	89 2b       	or	r24, r25
    1910:	09 f4       	brne	.+2      	; 0x1914 <strtod+0x7c>
    1912:	25 96       	adiw	r28, 0x05	; 5
    1914:	c1 14       	cp	r12, r1
    1916:	d1 04       	cpc	r13, r1
    1918:	19 f0       	breq	.+6      	; 0x1920 <strtod+0x88>
    191a:	f6 01       	movw	r30, r12
    191c:	d1 83       	std	Z+1, r29	; 0x01
    191e:	c0 83       	st	Z, r28
    1920:	11 11       	cpse	r17, r1
    1922:	f0 c0       	rjmp	.+480    	; 0x1b04 <strtod+0x26c>
    1924:	60 e0       	ldi	r22, 0x00	; 0
    1926:	70 e0       	ldi	r23, 0x00	; 0
    1928:	80 e8       	ldi	r24, 0x80	; 128
    192a:	9f e7       	ldi	r25, 0x7F	; 127
    192c:	f4 c0       	rjmp	.+488    	; 0x1b16 <strtod+0x27e>
    192e:	43 e0       	ldi	r20, 0x03	; 3
    1930:	50 e0       	ldi	r21, 0x00	; 0
    1932:	6a ee       	ldi	r22, 0xEA	; 234
    1934:	70 e0       	ldi	r23, 0x00	; 0
    1936:	ce 01       	movw	r24, r28
    1938:	fa d0       	rcall	.+500    	; 0x1b2e <strncasecmp_P>
    193a:	89 2b       	or	r24, r25
    193c:	59 f4       	brne	.+22     	; 0x1954 <strtod+0xbc>
    193e:	c1 14       	cp	r12, r1
    1940:	d1 04       	cpc	r13, r1
    1942:	09 f4       	brne	.+2      	; 0x1946 <strtod+0xae>
    1944:	e4 c0       	rjmp	.+456    	; 0x1b0e <strtod+0x276>
    1946:	f2 e0       	ldi	r31, 0x02	; 2
    1948:	ef 0e       	add	r14, r31
    194a:	f1 1c       	adc	r15, r1
    194c:	f6 01       	movw	r30, r12
    194e:	f1 82       	std	Z+1, r15	; 0x01
    1950:	e0 82       	st	Z, r14
    1952:	dd c0       	rjmp	.+442    	; 0x1b0e <strtod+0x276>
    1954:	20 e0       	ldi	r18, 0x00	; 0
    1956:	30 e0       	ldi	r19, 0x00	; 0
    1958:	a9 01       	movw	r20, r18
    195a:	c0 e0       	ldi	r28, 0x00	; 0
    195c:	d0 e0       	ldi	r29, 0x00	; 0
    195e:	f7 01       	movw	r30, r14
    1960:	80 ed       	ldi	r24, 0xD0	; 208
    1962:	a8 2e       	mov	r10, r24
    1964:	a0 0e       	add	r10, r16
    1966:	89 e0       	ldi	r24, 0x09	; 9
    1968:	8a 15       	cp	r24, r10
    196a:	28 f1       	brcs	.+74     	; 0x19b6 <strtod+0x11e>
    196c:	91 2f       	mov	r25, r17
    196e:	92 60       	ori	r25, 0x02	; 2
    1970:	b9 2e       	mov	r11, r25
    1972:	81 2f       	mov	r24, r17
    1974:	88 70       	andi	r24, 0x08	; 8
    1976:	12 ff       	sbrs	r17, 2
    1978:	04 c0       	rjmp	.+8      	; 0x1982 <strtod+0xea>
    197a:	81 11       	cpse	r24, r1
    197c:	23 c0       	rjmp	.+70     	; 0x19c4 <strtod+0x12c>
    197e:	21 96       	adiw	r28, 0x01	; 1
    1980:	21 c0       	rjmp	.+66     	; 0x19c4 <strtod+0x12c>
    1982:	81 11       	cpse	r24, r1
    1984:	21 97       	sbiw	r28, 0x01	; 1
    1986:	a5 e0       	ldi	r26, 0x05	; 5
    1988:	b0 e0       	ldi	r27, 0x00	; 0
    198a:	8e de       	rcall	.-740    	; 0x16a8 <__muluhisi3>
    198c:	dc 01       	movw	r26, r24
    198e:	cb 01       	movw	r24, r22
    1990:	88 0f       	add	r24, r24
    1992:	99 1f       	adc	r25, r25
    1994:	aa 1f       	adc	r26, r26
    1996:	bb 1f       	adc	r27, r27
    1998:	9c 01       	movw	r18, r24
    199a:	ad 01       	movw	r20, r26
    199c:	2a 0d       	add	r18, r10
    199e:	31 1d       	adc	r19, r1
    19a0:	41 1d       	adc	r20, r1
    19a2:	51 1d       	adc	r21, r1
    19a4:	28 39       	cpi	r18, 0x98	; 152
    19a6:	89 e9       	ldi	r24, 0x99	; 153
    19a8:	38 07       	cpc	r19, r24
    19aa:	48 07       	cpc	r20, r24
    19ac:	89 e1       	ldi	r24, 0x19	; 25
    19ae:	58 07       	cpc	r21, r24
    19b0:	48 f0       	brcs	.+18     	; 0x19c4 <strtod+0x12c>
    19b2:	16 60       	ori	r17, 0x06	; 6
    19b4:	06 c0       	rjmp	.+12     	; 0x19c2 <strtod+0x12a>
    19b6:	9e ef       	ldi	r25, 0xFE	; 254
    19b8:	a9 12       	cpse	r10, r25
    19ba:	0a c0       	rjmp	.+20     	; 0x19d0 <strtod+0x138>
    19bc:	13 fd       	sbrc	r17, 3
    19be:	40 c0       	rjmp	.+128    	; 0x1a40 <strtod+0x1a8>
    19c0:	18 60       	ori	r17, 0x08	; 8
    19c2:	b1 2e       	mov	r11, r17
    19c4:	8f ef       	ldi	r24, 0xFF	; 255
    19c6:	e8 1a       	sub	r14, r24
    19c8:	f8 0a       	sbc	r15, r24
    19ca:	00 81       	ld	r16, Z
    19cc:	1b 2d       	mov	r17, r11
    19ce:	c7 cf       	rjmp	.-114    	; 0x195e <strtod+0xc6>
    19d0:	80 2f       	mov	r24, r16
    19d2:	8f 7d       	andi	r24, 0xDF	; 223
    19d4:	85 34       	cpi	r24, 0x45	; 69
    19d6:	a1 f5       	brne	.+104    	; 0x1a40 <strtod+0x1a8>
    19d8:	80 81       	ld	r24, Z
    19da:	8d 32       	cpi	r24, 0x2D	; 45
    19dc:	11 f4       	brne	.+4      	; 0x19e2 <strtod+0x14a>
    19de:	10 61       	ori	r17, 0x10	; 16
    19e0:	06 c0       	rjmp	.+12     	; 0x19ee <strtod+0x156>
    19e2:	8b 32       	cpi	r24, 0x2B	; 43
    19e4:	21 f0       	breq	.+8      	; 0x19ee <strtod+0x156>
    19e6:	31 96       	adiw	r30, 0x01	; 1
    19e8:	61 e0       	ldi	r22, 0x01	; 1
    19ea:	70 e0       	ldi	r23, 0x00	; 0
    19ec:	04 c0       	rjmp	.+8      	; 0x19f6 <strtod+0x15e>
    19ee:	81 81       	ldd	r24, Z+1	; 0x01
    19f0:	32 96       	adiw	r30, 0x02	; 2
    19f2:	62 e0       	ldi	r22, 0x02	; 2
    19f4:	70 e0       	ldi	r23, 0x00	; 0
    19f6:	80 53       	subi	r24, 0x30	; 48
    19f8:	8a 30       	cpi	r24, 0x0A	; 10
    19fa:	18 f0       	brcs	.+6      	; 0x1a02 <strtod+0x16a>
    19fc:	e6 1b       	sub	r30, r22
    19fe:	f7 0b       	sbc	r31, r23
    1a00:	1f c0       	rjmp	.+62     	; 0x1a40 <strtod+0x1a8>
    1a02:	60 e0       	ldi	r22, 0x00	; 0
    1a04:	70 e0       	ldi	r23, 0x00	; 0
    1a06:	60 38       	cpi	r22, 0x80	; 128
    1a08:	9c e0       	ldi	r25, 0x0C	; 12
    1a0a:	79 07       	cpc	r23, r25
    1a0c:	5c f4       	brge	.+22     	; 0x1a24 <strtod+0x18c>
    1a0e:	db 01       	movw	r26, r22
    1a10:	aa 0f       	add	r26, r26
    1a12:	bb 1f       	adc	r27, r27
    1a14:	aa 0f       	add	r26, r26
    1a16:	bb 1f       	adc	r27, r27
    1a18:	6a 0f       	add	r22, r26
    1a1a:	7b 1f       	adc	r23, r27
    1a1c:	66 0f       	add	r22, r22
    1a1e:	77 1f       	adc	r23, r23
    1a20:	68 0f       	add	r22, r24
    1a22:	71 1d       	adc	r23, r1
    1a24:	31 96       	adiw	r30, 0x01	; 1
    1a26:	df 01       	movw	r26, r30
    1a28:	11 97       	sbiw	r26, 0x01	; 1
    1a2a:	8c 91       	ld	r24, X
    1a2c:	80 53       	subi	r24, 0x30	; 48
    1a2e:	8a 30       	cpi	r24, 0x0A	; 10
    1a30:	50 f3       	brcs	.-44     	; 0x1a06 <strtod+0x16e>
    1a32:	14 ff       	sbrs	r17, 4
    1a34:	03 c0       	rjmp	.+6      	; 0x1a3c <strtod+0x1a4>
    1a36:	71 95       	neg	r23
    1a38:	61 95       	neg	r22
    1a3a:	71 09       	sbc	r23, r1
    1a3c:	c6 0f       	add	r28, r22
    1a3e:	d7 1f       	adc	r29, r23
    1a40:	11 ff       	sbrs	r17, 1
    1a42:	08 c0       	rjmp	.+16     	; 0x1a54 <strtod+0x1bc>
    1a44:	c1 14       	cp	r12, r1
    1a46:	d1 04       	cpc	r13, r1
    1a48:	29 f0       	breq	.+10     	; 0x1a54 <strtod+0x1bc>
    1a4a:	cf 01       	movw	r24, r30
    1a4c:	01 97       	sbiw	r24, 0x01	; 1
    1a4e:	f6 01       	movw	r30, r12
    1a50:	91 83       	std	Z+1, r25	; 0x01
    1a52:	80 83       	st	Z, r24
    1a54:	ca 01       	movw	r24, r20
    1a56:	b9 01       	movw	r22, r18
    1a58:	5b db       	rcall	.-2378   	; 0x1110 <__floatunsisf>
    1a5a:	21 2f       	mov	r18, r17
    1a5c:	23 70       	andi	r18, 0x03	; 3
    1a5e:	23 30       	cpi	r18, 0x03	; 3
    1a60:	19 f0       	breq	.+6      	; 0x1a68 <strtod+0x1d0>
    1a62:	4b 01       	movw	r8, r22
    1a64:	5c 01       	movw	r10, r24
    1a66:	06 c0       	rjmp	.+12     	; 0x1a74 <strtod+0x1dc>
    1a68:	4b 01       	movw	r8, r22
    1a6a:	5c 01       	movw	r10, r24
    1a6c:	b7 fa       	bst	r11, 7
    1a6e:	b0 94       	com	r11
    1a70:	b7 f8       	bld	r11, 7
    1a72:	b0 94       	com	r11
    1a74:	20 e0       	ldi	r18, 0x00	; 0
    1a76:	30 e0       	ldi	r19, 0x00	; 0
    1a78:	a9 01       	movw	r20, r18
    1a7a:	c5 01       	movw	r24, r10
    1a7c:	b4 01       	movw	r22, r8
    1a7e:	ab da       	rcall	.-2730   	; 0xfd6 <__cmpsf2>
    1a80:	88 23       	and	r24, r24
    1a82:	09 f4       	brne	.+2      	; 0x1a86 <strtod+0x1ee>
    1a84:	3c c0       	rjmp	.+120    	; 0x1afe <strtod+0x266>
    1a86:	d7 ff       	sbrs	r29, 7
    1a88:	06 c0       	rjmp	.+12     	; 0x1a96 <strtod+0x1fe>
    1a8a:	d1 95       	neg	r29
    1a8c:	c1 95       	neg	r28
    1a8e:	d1 09       	sbc	r29, r1
    1a90:	09 e0       	ldi	r16, 0x09	; 9
    1a92:	11 e0       	ldi	r17, 0x01	; 1
    1a94:	02 c0       	rjmp	.+4      	; 0x1a9a <strtod+0x202>
    1a96:	01 e2       	ldi	r16, 0x21	; 33
    1a98:	11 e0       	ldi	r17, 0x01	; 1
    1a9a:	68 01       	movw	r12, r16
    1a9c:	f8 e1       	ldi	r31, 0x18	; 24
    1a9e:	cf 1a       	sub	r12, r31
    1aa0:	d1 08       	sbc	r13, r1
    1aa2:	90 e2       	ldi	r25, 0x20	; 32
    1aa4:	e9 2e       	mov	r14, r25
    1aa6:	f1 2c       	mov	r15, r1
    1aa8:	ce 15       	cp	r28, r14
    1aaa:	df 05       	cpc	r29, r15
    1aac:	6c f0       	brlt	.+26     	; 0x1ac8 <strtod+0x230>
    1aae:	f8 01       	movw	r30, r16
    1ab0:	25 91       	lpm	r18, Z+
    1ab2:	35 91       	lpm	r19, Z+
    1ab4:	45 91       	lpm	r20, Z+
    1ab6:	54 91       	lpm	r21, Z
    1ab8:	c5 01       	movw	r24, r10
    1aba:	b4 01       	movw	r22, r8
    1abc:	3b dc       	rcall	.-1930   	; 0x1334 <__mulsf3>
    1abe:	4b 01       	movw	r8, r22
    1ac0:	5c 01       	movw	r10, r24
    1ac2:	ce 19       	sub	r28, r14
    1ac4:	df 09       	sbc	r29, r15
    1ac6:	f0 cf       	rjmp	.-32     	; 0x1aa8 <strtod+0x210>
    1ac8:	04 50       	subi	r16, 0x04	; 4
    1aca:	11 09       	sbc	r17, r1
    1acc:	f5 94       	asr	r15
    1ace:	e7 94       	ror	r14
    1ad0:	0c 15       	cp	r16, r12
    1ad2:	1d 05       	cpc	r17, r13
    1ad4:	49 f7       	brne	.-46     	; 0x1aa8 <strtod+0x210>
    1ad6:	8a 2d       	mov	r24, r10
    1ad8:	88 0f       	add	r24, r24
    1ada:	8b 2d       	mov	r24, r11
    1adc:	88 1f       	adc	r24, r24
    1ade:	8f 3f       	cpi	r24, 0xFF	; 255
    1ae0:	41 f0       	breq	.+16     	; 0x1af2 <strtod+0x25a>
    1ae2:	20 e0       	ldi	r18, 0x00	; 0
    1ae4:	30 e0       	ldi	r19, 0x00	; 0
    1ae6:	a9 01       	movw	r20, r18
    1ae8:	c5 01       	movw	r24, r10
    1aea:	b4 01       	movw	r22, r8
    1aec:	74 da       	rcall	.-2840   	; 0xfd6 <__cmpsf2>
    1aee:	81 11       	cpse	r24, r1
    1af0:	06 c0       	rjmp	.+12     	; 0x1afe <strtod+0x266>
    1af2:	82 e2       	ldi	r24, 0x22	; 34
    1af4:	90 e0       	ldi	r25, 0x00	; 0
    1af6:	90 93 f9 01 	sts	0x01F9, r25	; 0x8001f9 <errno+0x1>
    1afa:	80 93 f8 01 	sts	0x01F8, r24	; 0x8001f8 <errno>
    1afe:	c5 01       	movw	r24, r10
    1b00:	b4 01       	movw	r22, r8
    1b02:	09 c0       	rjmp	.+18     	; 0x1b16 <strtod+0x27e>
    1b04:	60 e0       	ldi	r22, 0x00	; 0
    1b06:	70 e0       	ldi	r23, 0x00	; 0
    1b08:	80 e8       	ldi	r24, 0x80	; 128
    1b0a:	9f ef       	ldi	r25, 0xFF	; 255
    1b0c:	04 c0       	rjmp	.+8      	; 0x1b16 <strtod+0x27e>
    1b0e:	60 e0       	ldi	r22, 0x00	; 0
    1b10:	70 e0       	ldi	r23, 0x00	; 0
    1b12:	80 ec       	ldi	r24, 0xC0	; 192
    1b14:	9f e7       	ldi	r25, 0x7F	; 127
    1b16:	cd b7       	in	r28, 0x3d	; 61
    1b18:	de b7       	in	r29, 0x3e	; 62
    1b1a:	ec e0       	ldi	r30, 0x0C	; 12
    1b1c:	8a ce       	rjmp	.-748    	; 0x1832 <__epilogue_restores__+0xc>

00001b1e <isspace>:
    1b1e:	91 11       	cpse	r25, r1
    1b20:	1e c0       	rjmp	.+60     	; 0x1b5e <__ctype_isfalse>
    1b22:	80 32       	cpi	r24, 0x20	; 32
    1b24:	19 f0       	breq	.+6      	; 0x1b2c <isspace+0xe>
    1b26:	89 50       	subi	r24, 0x09	; 9
    1b28:	85 50       	subi	r24, 0x05	; 5
    1b2a:	d0 f7       	brcc	.-12     	; 0x1b20 <isspace+0x2>
    1b2c:	08 95       	ret

00001b2e <strncasecmp_P>:
    1b2e:	fb 01       	movw	r30, r22
    1b30:	dc 01       	movw	r26, r24
    1b32:	41 50       	subi	r20, 0x01	; 1
    1b34:	50 40       	sbci	r21, 0x00	; 0
    1b36:	88 f0       	brcs	.+34     	; 0x1b5a <strncasecmp_P+0x2c>
    1b38:	8d 91       	ld	r24, X+
    1b3a:	81 34       	cpi	r24, 0x41	; 65
    1b3c:	1c f0       	brlt	.+6      	; 0x1b44 <strncasecmp_P+0x16>
    1b3e:	8b 35       	cpi	r24, 0x5B	; 91
    1b40:	0c f4       	brge	.+2      	; 0x1b44 <strncasecmp_P+0x16>
    1b42:	80 5e       	subi	r24, 0xE0	; 224
    1b44:	65 91       	lpm	r22, Z+
    1b46:	61 34       	cpi	r22, 0x41	; 65
    1b48:	1c f0       	brlt	.+6      	; 0x1b50 <strncasecmp_P+0x22>
    1b4a:	6b 35       	cpi	r22, 0x5B	; 91
    1b4c:	0c f4       	brge	.+2      	; 0x1b50 <strncasecmp_P+0x22>
    1b4e:	60 5e       	subi	r22, 0xE0	; 224
    1b50:	86 1b       	sub	r24, r22
    1b52:	61 11       	cpse	r22, r1
    1b54:	71 f3       	breq	.-36     	; 0x1b32 <strncasecmp_P+0x4>
    1b56:	99 0b       	sbc	r25, r25
    1b58:	08 95       	ret
    1b5a:	88 1b       	sub	r24, r24
    1b5c:	fc cf       	rjmp	.-8      	; 0x1b56 <strncasecmp_P+0x28>

00001b5e <__ctype_isfalse>:
    1b5e:	99 27       	eor	r25, r25
    1b60:	88 27       	eor	r24, r24

00001b62 <__ctype_istrue>:
    1b62:	08 95       	ret

00001b64 <_exit>:
    1b64:	f8 94       	cli

00001b66 <__stop_program>:
    1b66:	ff cf       	rjmp	.-2      	; 0x1b66 <__stop_program>
